0000000000057787 T ATSpectrographAccessoryIsPresent
000000000005734c T ATSpectrographAtZeroOrder
0000000000057025 T ATSpectrographClose
0000000000057097 T ATSpectrographEepromGetOpticalParams
00000000000570c6 T ATSpectrographEepromSetOpticalParams
000000000005758a T ATSpectrographFilterIsPresent
00000000000575ac T ATSpectrographFilterReset
0000000000057655 T ATSpectrographFlipperMirrorIsPresent
000000000005767c T ATSpectrographFlipperMirrorReset
00000000000577f5 T ATSpectrographFocusMirrorIsPresent
0000000000057817 T ATSpectrographFocusMirrorReset
00000000000577ce T ATSpectrographGetAccessoryState
000000000005775a T ATSpectrographGetCCDLimits
000000000005791b T ATSpectrographGetCalibration
00000000000571d2 T ATSpectrographGetDetectorOffset
00000000000575e2 T ATSpectrographGetFilter
0000000000057604 T ATSpectrographGetFilterInfo
00000000000576c0 T ATSpectrographGetFlipperMirror
0000000000057733 T ATSpectrographGetFlipperMirrorMaxPosition
000000000005770c T ATSpectrographGetFlipperMirrorPosition
000000000005784d T ATSpectrographGetFocusMirror
000000000005786f T ATSpectrographGetFocusMirrorMaxSteps
000000000005704a T ATSpectrographGetFunctionReturnDescription
0000000000057151 T ATSpectrographGetGrating
0000000000057192 T ATSpectrographGetGratingInfo
0000000000057226 T ATSpectrographGetGratingOffset
00000000000579c9 T ATSpectrographGetIris
0000000000057030 T ATSpectrographGetNumberDevices
000000000005712f T ATSpectrographGetNumberGratings
00000000000578f9 T ATSpectrographGetNumberPixels
0000000000057943 T ATSpectrographGetPixelCalibrationCoefficients
00000000000578b8 T ATSpectrographGetPixelWidth
0000000000057072 T ATSpectrographGetSerialNumber
0000000000057549 T ATSpectrographGetShutter
0000000000057483 T ATSpectrographGetSlitCoefficients
00000000000573e1 T ATSpectrographGetSlitWidth
0000000000057437 T ATSpectrographGetSlitZeroPosition
0000000000057272 T ATSpectrographGetTurret
00000000000572ec T ATSpectrographGetWavelength
000000000005736e T ATSpectrographGetWavelengthLimits
0000000000057335 T ATSpectrographGotoZeroOrder
000000000005710d T ATSpectrographGratingIsPresent
000000000005700b T ATSpectrographInitialize
000000000005797d T ATSpectrographIrisIsPresent
0000000000057522 T ATSpectrographIsShutterModePossible
00000000000577a9 T ATSpectrographSetAccessoryState
00000000000571fd T ATSpectrographSetDetectorOffset
00000000000575c3 T ATSpectrographSetFilter
000000000005762e T ATSpectrographSetFilterInfo
000000000005769b T ATSpectrographSetFlipperMirror
00000000000576e7 T ATSpectrographSetFlipperMirrorPosition
000000000005782e T ATSpectrographSetFocusMirror
0000000000057173 T ATSpectrographSetGrating
000000000005724d T ATSpectrographSetGratingOffset
00000000000579a4 T ATSpectrographSetIris
00000000000578da T ATSpectrographSetNumberPixels
0000000000057891 T ATSpectrographSetPixelWidth
000000000005756b T ATSpectrographSetShutter
00000000000574c5 T ATSpectrographSetSlitCoefficients
0000000000057408 T ATSpectrographSetSlitWidth
000000000005745e T ATSpectrographSetSlitZeroPosition
0000000000057294 T ATSpectrographSetTurret
000000000005730e T ATSpectrographSetWavelength
0000000000057500 T ATSpectrographShutterIsPresent
000000000005739b T ATSpectrographSlitIsPresent
00000000000573c2 T ATSpectrographSlitReset
00000000000572b3 T ATSpectrographWavelengthIsPresent
00000000000572d5 T ATSpectrographWavelengthReset
00000000000a7131 T AddDevice
00000000000b6ba3 T Baud_getDivisor
00000000000b6d24 T Baud_getDivisorHi
00000000000a60f4 T CancelReadRequest
00000000000a3b57 T CloseDevice
00000000000a4888 T ClrDtr
00000000000a498c T ClrRts
00000000000a4e66 T Erase_EE
00000000000a3d6f T EventDestroy
00000000000a3d27 T EventInit
00000000000a3df8 T EventReset
00000000000a3dae T EventSet
00000000000a3e32 T EventWait
00000000000a06a1 T FT_Close
00000000000a1491 T FT_ClrDtr
00000000000a1503 T FT_ClrRts
00000000000a35b4 T FT_ComPortCancelIdle
00000000000a35a5 T FT_ComPortIdle
00000000000a2f29 T FT_CreateDeviceInfoList
00000000000a2376 T FT_CyclePort
00000000000a1c40 T FT_GetBitMode
00000000000a3592 T FT_GetComPortNumber
00000000000a1dd6 T FT_GetDeviceInfo
00000000000a3314 T FT_GetDeviceInfoDetail
00000000000a321d T FT_GetDeviceInfoList
00000000000a216c T FT_GetDeviceLocId
00000000000a350a T FT_GetDriverVersion
00000000000a1af0 T FT_GetEventStatus
00000000000a1b96 T FT_GetLatencyTimer
00000000000a353f T FT_GetLibraryVersion
00000000000a153c T FT_GetModemStatus
00000000000a16a8 T FT_GetQueueStatus
00000000000a17c0 T FT_GetQueueStatusEx
00000000000a1968 T FT_GetStatus
00000000000a0629 T FT_GetVIDPID
00000000000a124f T FT_IoCtl
00000000000a045f T FT_ListDevices
00000000000a0433 T FT_Open
00000000000a0403 T FT_OpenEx
00000000000a161b T FT_Purge
00000000000a0ae9 T FT_Read
00000000000a357b T FT_Reload
00000000000a3570 T FT_Rescan
00000000000a13f5 T FT_ResetDevice
00000000000a2367 T FT_ResetPort
00000000000a2318 T FT_RestartInTask
00000000000a12b5 T FT_SetBaudRate
00000000000a1be8 T FT_SetBitMode
00000000000a1a8d T FT_SetBreakOff
00000000000a1a4f T FT_SetBreakOn
00000000000a15ad T FT_SetChars
00000000000a12f6 T FT_SetDataCharacteristics
00000000000a1d7b T FT_SetDeadmanTimeout
00000000000a1270 T FT_SetDivisor
00000000000a1458 T FT_SetDtr
00000000000a18aa T FT_SetEventNotification
00000000000a1357 T FT_SetFlowControl
00000000000a1b52 T FT_SetLatencyTimer
00000000000a2355 T FT_SetResetPipeRetryCount
00000000000a14ca T FT_SetRts
00000000000a165c T FT_SetTimeouts
00000000000a1c92 T FT_SetUSBParameters
00000000000a0581 T FT_SetVIDPID
00000000000a1acb T FT_SetWaitMask
00000000000a22db T FT_StopInTask
00000000000a35c3 T FT_VendorCmdGet
00000000000a382a T FT_VendorCmdGetEx
00000000000a36f3 T FT_VendorCmdSet
00000000000a395a T FT_VendorCmdSetEx
00000000000a2644 T FT_W32_CancelIo
00000000000a2684 T FT_W32_ClearCommBreak
00000000000a26df T FT_W32_ClearCommError
00000000000a24c9 T FT_W32_CloseHandle
00000000000a2412 T FT_W32_CreateFile
00000000000a27ee T FT_W32_EscapeCommFunction
00000000000a2924 T FT_W32_GetCommModemStatus
00000000000a299d T FT_W32_GetCommState
00000000000a2a12 T FT_W32_GetCommTimeouts
00000000000a2a92 T FT_W32_GetLastError
00000000000a25f9 T FT_W32_GetOverlappedResult
00000000000a23ce T FT_W32_OpenFile
00000000000a2ac9 T FT_W32_PurgeComm
00000000000a250f T FT_W32_ReadFile
00000000000a2b4f T FT_W32_SetCommBreak
00000000000a2baa T FT_W32_SetCommMask
00000000000a2c49 T FT_W32_SetCommState
00000000000a2ccd T FT_W32_SetCommTimeouts
00000000000a2d3d T FT_W32_SetupComm
00000000000a2d75 T FT_W32_WaitCommEvent
00000000000a2584 T FT_W32_WriteFile
00000000000a1add T FT_WaitOnMask
00000000000a108a T FT_Write
00000000000a0f81 T FT_WriteMultiThread
00000000000a101d T FT_WriteSingleThread
00000000000a70a6 T FindDevice
00000000000a55bd T GetBitMode
00000000000a6b10 T GetBytesPerTransfer
00000000000b5e2d T GetConfigFlags
00000000000b5de5 T GetConfigType
00000000000b60d8 T GetDeviceConfigSettings
00000000000a3b8b T GetDeviceDescription
00000000000a3977 T GetDeviceType
00000000000a510e T GetLatencyTimer
00000000000a4b12 T GetModemStatus
00000000000a3ab5 T GetOpenDeviceName
00000000000b5d61 T GetSectionType
00000000000b5cc4 T GetString
00000000000a737f T IdTable_add
00000000000a7219 T IdTable_create
00000000000a72a8 T IdTable_destroy
00000000000a7470 T IdTable_finalEntry
00000000000a7307 T IdTable_find
00000000000a5f6d T InRequest
00000000000a5e67 T InRequestCompletion
00000000000a70e7 T IsDeviceValid
00000000000a5dce T ProcessReadConditionFlag
00000000000a6130 T ProcessReadRequest
00000000000a4b87 T Purge
00000000000a4d94 T Read_EE
00000000000a718c T RemoveDevice
00000000000a2ee7 T ResetAttachedList
00000000000a5a58 T ResetDevice
00000000000a405f T SetBaudRate
00000000000a5346 T SetBitMode
00000000000a4d23 T SetBreak
00000000000a4a0e T SetChars
00000000000b5e80 T SetConfigData
00000000000a461c T SetDivisor
00000000000a4806 T SetDtr
00000000000a473c T SetFlowControl
00000000000a4eb3 T SetLatencyTimer
00000000000a4671 T SetLineControl
00000000000a490a T SetRts
00000000000a57f5 T SetState
0000000000053732 T ShamrockAccessoryIsPresent
00000000000531ce T ShamrockAtZeroOrder
00000000000557cc T ShamrockAutoSlitIsPresent
00000000000556f0 T ShamrockAutoSlitReset
0000000000052c64 T ShamrockClose
0000000000055def T ShamrockEepromGetOpticalParams
0000000000055d2d T ShamrockEepromSetOpticalParams
0000000000053bb8 T ShamrockFilterIsPresent
000000000005388b T ShamrockFilterReset
0000000000054493 T ShamrockFlipperIsPresent
000000000005406b T ShamrockFlipperMirrorIsPresent
0000000000053e65 T ShamrockFlipperMirrorReset
0000000000054477 T ShamrockFlipperReset
00000000000564d0 T ShamrockFocusMirrorIsPresent
000000000005641d T ShamrockFocusMirrorReset
000000000005366a T ShamrockGetAccessoryState
000000000005599c T ShamrockGetAutoSlitCoefficients
00000000000555ef T ShamrockGetAutoSlitWidth
0000000000053f41 T ShamrockGetCCDLimits
0000000000056107 T ShamrockGetCalibration
000000000005495b T ShamrockGetDetectorOffset
0000000000056707 T ShamrockGetDetectorOffsetEx
0000000000054ab7 T ShamrockGetDetectorOffsetPort2
000000000005391c T ShamrockGetFilter
00000000000539b7 T ShamrockGetFilterInfo
0000000000053d6a T ShamrockGetFlipperMirror
0000000000054363 T ShamrockGetFlipperMirrorMaxPosition
000000000005426a T ShamrockGetFlipperMirrorPosition
00000000000562ed T ShamrockGetFocusMirror
0000000000056385 T ShamrockGetFocusMirrorMaxSteps
0000000000052d8a T ShamrockGetFunctionReturnDescription
000000000005458c T ShamrockGetGrating
0000000000054764 T ShamrockGetGratingInfo
0000000000054c51 T ShamrockGetGratingOffset
0000000000056978 T ShamrockGetIris
0000000000052cc5 T ShamrockGetNumberDevices
00000000000546cc T ShamrockGetNumberGratings
000000000005606d T ShamrockGetNumberPixels
0000000000054f59 T ShamrockGetOutputSlit
000000000005657d T ShamrockGetPixelCalibrationCoefficients
0000000000055fd1 T ShamrockGetPixelWidth
0000000000054453 T ShamrockGetPort
0000000000052cfb T ShamrockGetSerialNumber
0000000000055097 T ShamrockGetShutter
0000000000055c4c T ShamrockGetSlit
0000000000055ceb T ShamrockGetSlitCoefficients
0000000000055b46 T ShamrockGetSlitZeroPosition
0000000000054e8f T ShamrockGetTurret
0000000000053094 T ShamrockGetWavelength
00000000000533ff T ShamrockGetWavelengthLimits
0000000000053140 T ShamrockGotoZeroOrder
0000000000054d33 T ShamrockGratingIsPresent
0000000000052b5e T ShamrockInitialize
000000000005679e T ShamrockIrisIsPresent
000000000005512f T ShamrockIsModePossible
0000000000054f99 T ShamrockOutputSlitIsPresent
0000000000054f7d T ShamrockOutputSlitReset
00000000000535b2 T ShamrockSetAccessory
00000000000558db T ShamrockSetAutoSlitCoefficients
000000000005544b T ShamrockSetAutoSlitWidth
00000000000548a1 T ShamrockSetDetectorOffset
000000000005665a T ShamrockSetDetectorOffsetEx
00000000000549fd T ShamrockSetDetectorOffsetPort2
00000000000537df T ShamrockSetFilter
0000000000053ac9 T ShamrockSetFilterInfo
0000000000053c65 T ShamrockSetFlipperMirror
0000000000054174 T ShamrockSetFlipperMirrorPosition
00000000000561c3 T ShamrockSetFocusMirror
00000000000544b7 T ShamrockSetGrating
0000000000054b59 T ShamrockSetGratingOffset
000000000005688b T ShamrockSetIris
0000000000055f3d T ShamrockSetNumberPixels
0000000000054f2d T ShamrockSetOutputSlit
0000000000055e96 T ShamrockSetPixelWidth
0000000000054431 T ShamrockSetPort
0000000000054fbd T ShamrockSetShutter
0000000000055c20 T ShamrockSetSlit
0000000000055cb0 T ShamrockSetSlitCoefficients
0000000000055a66 T ShamrockSetSlitZeroPosition
0000000000054de0 T ShamrockSetTurret
0000000000052f7d T ShamrockSetWavelength
0000000000055313 T ShamrockShutterIsPresent
0000000000055c8c T ShamrockSlitIsPresent
0000000000055c70 T ShamrockSlitReset
00000000000534fb T ShamrockWavelengthIsPresent
0000000000054627 T ShamrockWavelengthReset
00000000000546b5 T ShamrockWavelengthUnsafeReset
00000000000a5df6 T UpdateDeadmanTimeout
00000000000a5c0e T VendorCmdGet
00000000000a5a9d T VendorCmdSet
00000000000a4def T Write_EE
                 w _ITM_deregisterTMCloneTable
                 w _ITM_registerTMCloneTable
                 w _Jv_RegisterClasses
                 U _Unwind_Resume
000000000008de1c T _Z11GlobalAllocjj
000000000005bdc0 T _Z11free_matrixPPdiiii
000000000005bd90 T _Z11free_vectorPdii
000000000008dd4c T _Z12GetTickCountv
000000000005be7c T _Z12free_ivectorPiii
000000000008e6c5 T _Z15GetComputerNamePcPj
000000000008dde6 T _Z17OutputDebugStringPKc
0000000000052b35 T _Z17validDeviceNumberi
0000000000071257 W _Z19GetCurrentDirectoryjPc
000000000008dd28 T _Z19InitialiseTickCountv
000000000008e905 T _Z20GetPrivateProfileIntPKcS0_iS0_
0000000000053285 T _Z21ShamrockGetDispersioniPfS_
0000000000055285 T _Z22ShamrockExternalChangei
000000000008ea89 T _Z23GetPrivateProfileStringPKcS0_S0_PcjS0_
0000000000053335 T _Z24ShamrockGetDispersionForifPfS_i
000000000008dda8 T _Z25InitializeCriticalSectionP15pthread_mutex_t
00000000000551f7 T _Z25ShamrockLoadShutterValuesi
000000000008ef5e T _Z25WritePrivateProfileStringPKcS0_S0_S0_
0000000000056f3e W _Z26SDKPortIndexToPortPositioni
00000000000553c0 T _Z26SDKSlitIndexToSlitPositioni
0000000000056be9 T _Z26ShamrockGetFocusMirrorTiltiPi
0000000000056b39 T _Z26ShamrockSetFocusMirrorTiltii
0000000000056fa3 W _Z32SDKFlipperIndexToFlipperPositioni
0000000000056a6c T _Z32ShamrockFocusMirrorTiltIsPresentiPi
0000000000056d71 T _Z32ShamrockGetFocusMirrorTiltOffsetiiiPi
0000000000056cb8 T _Z32ShamrockSetFocusMirrorTiltOffsetiiii
000000000008e5f3 T _Z4itoaiPci
000000000005b009 T _Z4lfitPdS_S_iiPS_
000000000005b360 T _Z5fploydPdi
000000000005b3d2 T _Z6gaussjPPdiS0_i
000000000005bcbb T _Z6matrixiiii
000000000008e680 T _Z6strlwrPc
000000000008e63b T _Z6struprPc
000000000005bc76 T _Z6vectorii
000000000008e2ce T _Z7fnmergePcS_S_S_S_
000000000008dec1 T _Z7fnsplitPcS_S_S_S_
000000000005be37 T _Z7ivectorii
000000000008e717 T _Z7stricmpPKcS0_
000000000008e4e3 T _Z8CopyFilePKcS0_b
000000000008e31d T _Z8fnMerge1PcS_S_S_S_S_S_
000000000008df10 T _Z8fnSplit1PcS_S_S_S_S_S_
000000000008de7b T _Z8has_wildPc
0000000000058f9a T _ZN10TAndorTime16GetTimeElapsedMsERS_
0000000000058f5a T _ZN10TAndorTime20GetCurrentSystemTimeERS_
0000000000058fd0 T _ZN10TAndorTime20GetCurrentSystemTimeEv
0000000000058cea W _ZN10TAndorTimeC1Ev
0000000000058cea W _ZN10TAndorTimeC2Ev
000000000005905c T _ZN10TAndorTimeaSERKS_
000000000008dce4 T _ZN10TAutoFocus11DoAutoFocusEv
000000000008dcf4 T _ZN10TAutoFocus15CancelAutoFocusEv
0000000000088ada W _ZN10TAutoFocusC1Ev
0000000000088ada W _ZN10TAutoFocusC2Ev
0000000000088ae4 W _ZN10TAutoFocusD1Ev
0000000000088ae4 W _ZN10TAutoFocusD2Ev
0000000000098f74 W _ZN10TSDKEeprom14GetGratingInfoEiRfRPKc
0000000000098f56 W _ZN10TSDKEeprom16GetGratingInfoExEiRfRPKcS0_S0_
0000000000098e72 T _ZN10TSDKEeprom16GetOpticalParamsERfS0_S0_
0000000000098de4 T _ZN10TSDKEeprom16SetOpticalParamsEfff
0000000000098f46 W _ZN10TSDKEeprom17GetNumberGratingsEv
0000000000098da8 T _ZN10TSDKEepromC1EP12Spectrograph
0000000000098da8 T _ZN10TSDKEepromC2EP12Spectrograph
0000000000098fcc W _ZN10TSDKEepromD0Ev
0000000000098f8a W _ZN10TSDKEepromD1Ev
0000000000098f8a W _ZN10TSDKEepromD2Ev
00000000000991f8 T _ZN10TSDKFilter13GetFilterInfoEiPci
00000000000992bc T _ZN10TSDKFilter13SetFilterInfoEiPKc
00000000000993cc T _ZN10TSDKFilter5ResetEv
0000000000099136 T _ZN10TSDKFilter9GetFilterEv
00000000000994c8 T _ZN10TSDKFilter9IsPresentEv
000000000009902e T _ZN10TSDKFilter9SetFilterEi
0000000000098ff2 T _ZN10TSDKFilterC1EP12Spectrograph
0000000000098ff2 T _ZN10TSDKFilterC2EP12Spectrograph
0000000000099592 W _ZN10TSDKFilterD0Ev
0000000000099550 W _ZN10TSDKFilterD1Ev
0000000000099550 W _ZN10TSDKFilterD2Ev
000000000008c4c4 T _ZN11AndorLocale16setCurrentLocaleEPKc
000000000008c5d2 T _ZN11AndorLocale18storeCurrentLocaleEv
000000000008c42c T _ZN11AndorLocaleC1EPKc
000000000008c42c T _ZN11AndorLocaleC2EPKc
000000000008c48c T _ZN11AndorLocaleD1Ev
000000000008c48c T _ZN11AndorLocaleD2Ev
000000000006f994 T _ZN11EESpectData10ReadStringEPcihh
0000000000070146 T _ZN11EESpectData10SetControlEP13TI2CInterfaceb
000000000006f8aa T _ZN11EESpectData10WriteFloatEfhh
000000000006fb64 T _ZN11EESpectData11WriteStringEPcihh
000000000006d364 T _ZN11EESpectData11WriteToFileEPc
0000000000070066 T _ZN11EESpectData12EngineMovingEi
00000000000712bc W _ZN11EESpectData12GetTaskErrorEv
000000000006fdf4 T _ZN11EESpectData12I2CBurstReadEhiPh
0000000000069d48 T _ZN11EESpectData12ReadFromFileEPc
000000000006fecc T _ZN11EESpectData12SetWriteModeEv
000000000006fd92 T _ZN11EESpectData13I2CBurstWriteEhiPKh
0000000000064e94 T _ZN11EESpectData13WriteToEEPROMEv
0000000000070284 T _ZN11EESpectData14GetFPGAVersionEv
00000000000631a8 T _ZN11EESpectData14ReadFromEEPROMEv
000000000007111e T _ZN11EESpectData14getBlazeDigitsEv
0000000000071148 T _ZN11EESpectData15getBlazeAddressEii
000000000006fe56 T _ZN11EESpectData16GetSinCorrectionEe
00000000000665b2 T _ZN11EESpectData17WriteToEEPROMLoopEi
000000000006d066 T _ZN11EESpectData18ConvertSlitToStepsEif
000000000006d160 T _ZN11EESpectData18ConvertStepsToSlitEii
000000000006cb76 T _ZN11EESpectData18ConvertWaveToStepsEfii
00000000000702d0 T _ZN11EESpectData18I2CRampStepperMoveEhiiiibbiPiS0_i
0000000000067e0a T _ZN11EESpectData18ReadFromEEPROMLoopEi
000000000006ff02 T _ZN11EESpectData18SplitVersionStringEPKcRiS2_
000000000006cee4 T _ZN11EESpectData19GetActualWavelengthEfii
0000000000070ee0 T _ZN11EESpectData20ReadSlitCoefficientsERiS0_S0_S0_
0000000000070fd2 T _ZN11EESpectData21WriteSlitCoefficientsEiiii
00000000000710be T _ZN11EESpectData23SetStructureVersionInfoEPKc
000000000007086a T _ZN11EESpectData24i2CRampStepperMoveFPGA23EhiiiibbiPiS0_i
0000000000062f96 T _ZN11EESpectData26WriteOpticalParamsToEEPROMEfff
0000000000062eb4 T _ZN11EESpectData27ReadOpticalParamsFromEEPROMEPfS0_S0_
00000000000703c6 T _ZN11EESpectData27i2CRampStepperMovePreFPGA23EhiiiibbiPiS0_i
00000000000701fc T _ZN11EESpectData5DelayEf
0000000000070e0a T _ZN11EESpectData6UploadEhih
0000000000069cb4 T _ZN11EESpectData7ExecuteEi
000000000006fd32 T _ZN11EESpectData7I2CReadEhhPh
000000000006f59c T _ZN11EESpectData7ReadIntEPihh
000000000006fcd2 T _ZN11EESpectData8I2CWriteEhhh
000000000006f7c0 T _ZN11EESpectData8ReadByteEPhhh
000000000006f6c0 T _ZN11EESpectData8WriteIntEihh
000000000006fa78 T _ZN11EESpectData9ReadBlazeEPcihh
000000000006f814 T _ZN11EESpectData9ReadFloatEPfhh
000000000006f634 T _ZN11EESpectData9WriteByteEhhh
00000000000624dc T _ZN11EESpectDataC1EP13TI2CInterfaceb
00000000000624dc T _ZN11EESpectDataC2EP13TI2CInterfaceb
0000000000063094 T _ZN11EESpectDataD1Ev
0000000000063094 T _ZN11EESpectDataD2Ev
0000000000094c64 W _ZN11SI_ConvertAIcE11SizeToStoreEPKc
0000000000091f5a W _ZN11SI_ConvertAIcE13SizeFromStoreEPKcm
0000000000094c86 W _ZN11SI_ConvertAIcE14ConvertToStoreEPKcPcm
0000000000091f70 W _ZN11SI_ConvertAIcE16ConvertFromStoreEPKcmPcm
0000000000091f40 W _ZN11SI_ConvertAIcEC1Eb
0000000000091f40 W _ZN11SI_ConvertAIcEC2Eb
00000000000712a2 W _ZN11TAndorPointC1Ev
00000000000712a2 W _ZN11TAndorPointC2Ev
0000000000098aea T _ZN11TSDKControl15GetI2CInterfaceEi
0000000000098ad8 T _ZN11TSDKControl16GetNumberDevicesEv
0000000000098b28 T _ZN11TSDKControl20GetDetectorInterfaceEi
0000000000098540 T _ZN11TSDKControlC1EPcPKc
0000000000098540 T _ZN11TSDKControlC2EPcPKc
0000000000098ab2 T _ZN11TSDKControlD0Ev
0000000000098944 T _ZN11TSDKControlD1Ev
0000000000098944 T _ZN11TSDKControlD2Ev
00000000000999f0 T _ZN11TSDKFlipper11GetMaxStepsEv
00000000000998e0 T _ZN11TSDKFlipper12GetCCDLimitsEN20ISpectrographFlipper13TPortPositionERfS2_
0000000000099602 T _ZN11TSDKFlipper14SetFlipperPortEN20ISpectrographFlipper13TPortPositionE
00000000000997e4 T _ZN11TSDKFlipper5ResetEv
0000000000099712 T _ZN11TSDKFlipper7GetPortEv
0000000000099a0e T _ZN11TSDKFlipper8GetMotorEPi
0000000000099a00 T _ZN11TSDKFlipper8SetMotorEi
00000000000999b6 T _ZN11TSDKFlipper9IsPresentEv
00000000000995b8 T _ZN11TSDKFlipperC1EP12SpectrographN20ISpectrographFlipper16TFlipperPositionE
00000000000995b8 T _ZN11TSDKFlipperC2EP12SpectrographN20ISpectrographFlipper16TFlipperPositionE
0000000000099abc W _ZN11TSDKFlipperD0Ev
0000000000099a7a W _ZN11TSDKFlipperD1Ev
0000000000099a7a W _ZN11TSDKFlipperD2Ev
0000000000099c26 T _ZN11TSDKGrating10GetGratingEv
0000000000099b1e T _ZN11TSDKGrating10SetGratingEi
0000000000099dea T _ZN11TSDKGrating11UnsafeResetEv
0000000000099ece T _ZN11TSDKGrating14GetGratingInfoEiRfRPKcS0_S0_
000000000009a402 T _ZN11TSDKGrating16GetGratingOffsetEi
000000000009a2f4 T _ZN11TSDKGrating16SetGratingOffsetEii
000000000009a234 T _ZN11TSDKGrating17GetDetectorOffsetEii
000000000009a0ae T _ZN11TSDKGrating17GetDetectorOffsetEv
0000000000099e10 T _ZN11TSDKGrating17GetNumberGratingsEv
0000000000099faa T _ZN11TSDKGrating17SetDetectorOffsetEi
000000000009a126 T _ZN11TSDKGrating17SetDetectorOffsetEiii
000000000009a4c2 T _ZN11TSDKGrating19GetWavelengthLimitsEiRfS0_
000000000009a7aa W _ZN11TSDKGrating19NeedsTurretSafeMoveEv
000000000009a4aa T _ZN11TSDKGrating23GratingOffsetAutoAdjustEv
000000000009a7ba W _ZN11TSDKGrating24MoveTurretToSafePositionEv
000000000009a4b6 T _ZN11TSDKGrating29GratingOffsetCancelAutoAdjustEv
0000000000099ce8 T _ZN11TSDKGrating5ResetEv
000000000009a7c4 W _ZN11TSDKGrating8ReadRFIDEv
000000000009a692 T _ZN11TSDKGrating9GetTurretEv
000000000009a590 T _ZN11TSDKGrating9IsPresentEv
000000000009a5a2 T _ZN11TSDKGrating9SetTurretEi
0000000000099ae2 T _ZN11TSDKGratingC1EP12Spectrograph
0000000000099ae2 T _ZN11TSDKGratingC2EP12Spectrograph
000000000009a810 W _ZN11TSDKGratingD0Ev
000000000009a7ce W _ZN11TSDKGratingD1Ev
000000000009a7ce W _ZN11TSDKGratingD2Ev
000000000009b580 T _ZN11TSDKShutter14ExternalChangeEv
000000000009b576 T _ZN11TSDKShutter17LoadShutterValuesEv
000000000009b312 T _ZN11TSDKShutter18GetExternalShutterEv
000000000009b468 T _ZN11TSDKShutter18GetInternalShutterEv
000000000009b2d0 T _ZN11TSDKShutter18SetExternalShutterEi
000000000009b392 T _ZN11TSDKShutter18SetInternalShutterEi
000000000009b350 T _ZN11TSDKShutter22IsExternalModePossibleEi
000000000009b4f8 T _ZN11TSDKShutter22IsInternalModePossibleEi
000000000009b4d2 T _ZN11TSDKShutter24InternalShutterAvailableEv
000000000009b5fa T _ZN11TSDKShutter9IsPresentEv
000000000009b288 T _ZN11TSDKShutterC1EP12Spectrograph
000000000009b288 T _ZN11TSDKShutterC2EP12Spectrograph
000000000009b6c4 W _ZN11TSDKShutterD0Ev
000000000009b682 W _ZN11TSDKShutterD1Ev
000000000009b682 W _ZN11TSDKShutterD2Ev
000000000009c932 T _ZN11TUSBControl15GetI2CInterfaceEi
000000000009c920 T _ZN11TUSBControl16GetNumberDevicesEv
000000000009c970 T _ZN11TUSBControl20GetDetectorInterfaceEi
000000000009c510 T _ZN11TUSBControlC1EPKc
000000000009c510 T _ZN11TUSBControlC2EPKc
000000000009c8fa T _ZN11TUSBControlD0Ev
000000000009c7e4 T _ZN11TUSBControlD1Ev
000000000009c7e4 T _ZN11TUSBControlD2Ev
000000000008c8b2 T _ZN12AndorUtility10TAndorMath11RoundDoubleEdi
00000000000b8700 R _ZN12AndorUtility10TAndorMath12gbl_shiftamtE
000000000008c6cc T _ZN12AndorUtility10TAndorMath13IsModulusZeroEdd
000000000008c6b2 T _ZN12AndorUtility10TAndorMath13IsModulusZeroEii
000000000008c716 T _ZN12AndorUtility10TAndorMath16IsNotWholeNumberEd
000000000008c866 T _ZN12AndorUtility10TAndorMath16keepWithinMinMaxEddd
00000000000b86f8 R _ZN12AndorUtility10TAndorMath19gbl_double2fixmagicE
000000000008c602 T _ZN12AndorUtility10TAndorMath23GetLowestCommonMultipleEii
000000000008c670 T _ZN12AndorUtility10TAndorMath25SetHighestAndLowestNumberEiiRiS1_
000000000008c798 T _ZN12AndorUtility10TAndorMath6EqualsEdd
000000000008c7fe T _ZN12AndorUtility10TAndorMath6EqualsEff
000000000008c75a T _ZN12AndorUtility10TAndorMath6IsZeroEd
000000000008c7bc T _ZN12AndorUtility10TAndorMath6IsZeroEf
000000000008c844 T _ZN12AndorUtility10TAndorMath9Round2IntEd
000000000008c822 T _ZN12AndorUtility10TAndorMath9Round2IntEf
00000000000586fe T _ZN12AndorUtility10TAndorMisc10RemoveFileEPKc
0000000000057a10 T _ZN12AndorUtility10TAndorMisc10TimedSleepEm
0000000000057b5e T _ZN12AndorUtility10TAndorMisc11GetThreadIDEv
000000000005871e T _ZN12AndorUtility10TAndorMisc11RemoveFilesEPKcS2_
0000000000057b9e T _ZN12AndorUtility10TAndorMisc12StringToUI64EPKc
0000000000057c64 T _ZN12AndorUtility10TAndorMisc12UI64ToStringEyPci
0000000000057e4e T _ZN12AndorUtility10TAndorMisc13ReverseStringEPc
000000000005888a T _ZN12AndorUtility10TAndorMisc13getSystemTimeEv
0000000000058af0 T _ZN12AndorUtility10TAndorMisc15WriteSystemTimeEPcP10SYSTEMTIME
0000000000058866 T _ZN12AndorUtility10TAndorMisc19FastDoubleToAndor32Ed
0000000000058a0a T _ZN12AndorUtility10TAndorMisc19TimeValToSYSTEMTIMEE7timeval
00000000000588ae T _ZN12AndorUtility10TAndorMisc19getSystemTimeOffsetE7timevaly
0000000000058ab6 T _ZN12AndorUtility10TAndorMisc22GetCurrentMillisecondsEv
0000000000057b6a T _ZN12AndorUtility10TAndorMisc4gcvtEdiPc
00000000000579f0 T _ZN12AndorUtility10TAndorMisc5SleepEm
00000000000580ec T _ZN12AndorUtility10TAndorMisc5fopenEP8_IO_FILEPKcS4_
000000000005811e T _ZN12AndorUtility10TAndorMisc5fopenEPP8_IO_FILEPKcS5_
0000000000057b50 T _ZN12AndorUtility10TAndorMisc6GetPIDEv
00000000000581e4 T _ZN12AndorUtility10TAndorMisc6strcatEPcPKc
0000000000058188 T _ZN12AndorUtility10TAndorMisc6strcpyEPcPKc
0000000000057e24 T _ZN12AndorUtility10TAndorMisc6wcscatEPwPKw
0000000000057dc8 T _ZN12AndorUtility10TAndorMisc6wcscpyEPwPKw
00000000000586b8 T _ZN12AndorUtility10TAndorMisc7MakeDirEPKc
0000000000058636 T _ZN12AndorUtility10TAndorMisc7fnsplitEPKcPcS3_S3_S3_
000000000005868c T _ZN12AndorUtility10TAndorMisc7stricmpEPKcS2_
00000000000581b2 T _ZN12AndorUtility10TAndorMisc7strncatEPcPKcm
0000000000058156 T _ZN12AndorUtility10TAndorMisc7strncpyEPcPKcm
0000000000057df2 T _ZN12AndorUtility10TAndorMisc7wcsncatEPwPKwm
0000000000057d68 T _ZN12AndorUtility10TAndorMisc7wcsncpyEPwPKwm
00000000000582b4 T _ZN12AndorUtility10TAndorMisc8fnSplit1EPKcPcS3_S3_S3_S3_S3_
000000000005826a T _ZN12AndorUtility10TAndorMisc8has_wildEPc
000000000005823c T _ZN12AndorUtility10TAndorMisc8mbstotcsEPcPKcm
0000000000057f4a T _ZN12AndorUtility10TAndorMisc8snprintfEPcmPKcz
000000000005820e T _ZN12AndorUtility10TAndorMisc8tcstombsEPcPKcm
00000000000586de T _ZN12AndorUtility10TAndorMisc9RemoveDirEPKc
0000000000058002 T _ZN12AndorUtility10TAndorMisc9_snprintfEPcmPKcz
0000000000057a98 T _ZN12AndorUtility10TAndorMisc9snwprintfEPwmPKwz
00000000000580ba T _ZN12AndorUtility10TAndorMisc9vsnprintfEPcmPKcP13__va_list_tag
000000000009daca T _ZN12AndorUtility14TAndorFilePath10DelimitEndEv
000000000009dab8 T _ZN12AndorUtility14TAndorFilePath16GetBackSlashPathEv
000000000009dc42 T _ZN12AndorUtility14TAndorFilePath19CreateBackSlashPathEPKc
000000000009daa6 T _ZN12AndorUtility14TAndorFilePath19GetForwardSlashPathEv
000000000009db9a T _ZN12AndorUtility14TAndorFilePath22CreateForwardSlashPathEPKc
000000000009dcea T _ZN12AndorUtility14TAndorFilePath7GetPathEv
000000000009dd04 T _ZN12AndorUtility14TAndorFilePath9GetParentEv
000000000009d82c T _ZN12AndorUtility14TAndorFilePathC1EPKc
000000000009d88a T _ZN12AndorUtility14TAndorFilePathC1ERKS0_
000000000009d7d2 T _ZN12AndorUtility14TAndorFilePathC1Ev
000000000009d82c T _ZN12AndorUtility14TAndorFilePathC2EPKc
000000000009d88a T _ZN12AndorUtility14TAndorFilePathC2ERKS0_
000000000009d7d2 T _ZN12AndorUtility14TAndorFilePathC2Ev
000000000009d8c6 T _ZN12AndorUtility14TAndorFilePathD1Ev
000000000009d8c6 T _ZN12AndorUtility14TAndorFilePathD2Ev
000000000009d90c T _ZN12AndorUtility14TAndorFilePathaSERKS0_
000000000009d9f8 T _ZN12AndorUtility14TAndorFilePathplERKS0_
000000000009d1d6 T _ZN12AndorUtility19TAndorDynamicLoader11GetFunctionEPKc
000000000009d200 T _ZN12AndorUtility19TAndorDynamicLoader11GetFunctionEPKw
00000000002dd030 D _ZN12AndorUtility19TAndorDynamicLoader12NO_ERROR_MSGE
000000000009d16c T _ZN12AndorUtility19TAndorDynamicLoader18updateErrorMessageEv
000000000009cff2 T _ZN12AndorUtility19TAndorDynamicLoader4OpenEv
000000000009d1a6 T _ZN12AndorUtility19TAndorDynamicLoader5CloseEv
000000000009ce52 T _ZN12AndorUtility19TAndorDynamicLoaderC1ENS_14TAndorFilePathEPS1_b
000000000009ce52 T _ZN12AndorUtility19TAndorDynamicLoaderC2ENS_14TAndorFilePathEPS1_b
000000000009cf92 T _ZN12AndorUtility19TAndorDynamicLoaderD1Ev
000000000009cf92 T _ZN12AndorUtility19TAndorDynamicLoaderD2Ev
000000000005df28 T _ZN12Spectrograph10GetGratingEPi
000000000005e0de T _ZN12Spectrograph10SetGratingEi
000000000005c96a T _ZN12Spectrograph10SetShutterENS_25TSpectrographShutterStateE
000000000005ed48 T _ZN12Spectrograph11AtZeroOrderEPb
000000000005c6c8 T _ZN12Spectrograph11QuickDetectEP13TI2CInterface
000000000005d118 T _ZN12Spectrograph11ResetFilterEv
000000000006154c T _ZN12Spectrograph11ResetMirrorEv
0000000000061b9c T _ZN12Spectrograph12DeviceExistsEi
000000000005c824 T _ZN12Spectrograph12ReadSpectCfgEPc
000000000005d7b2 T _ZN12Spectrograph13GetFilterInfoEiPci
000000000005e824 T _ZN12Spectrograph13GetWavelengthEPf
000000000005e9d8 T _ZN12Spectrograph13GotoZeroOrderEi
000000000005d812 T _ZN12Spectrograph13SetFilterInfoEiPKc
000000000005f5de T _ZN12Spectrograph13SetWavelengthEf
000000000005eee2 T _ZN12Spectrograph13WaveStepShiftEi
000000000005dc90 T _ZN12Spectrograph14GetGratingInfoEiPfPPKc
000000000005d976 T _ZN12Spectrograph14GetMirrorFocusEPi
000000000005d964 T _ZN12Spectrograph14SetMirrorFocusEi
000000000006189a T _ZN12Spectrograph15ReadSensorStateEiPii
000000000005f9ea T _ZN12Spectrograph15ResetWavelengthEb
000000000005dd96 T _ZN12Spectrograph16GetGratingInfoExEiPfPPKcS0_S0_
000000000005d794 T _ZN12Spectrograph16GetNumberFiltersEPi
000000000005dadc T _ZN12Spectrograph16GetOpticalParamsEPfS0_S0_
00000000000615d2 T _ZN12Spectrograph16GetPortCCDLimitsEbRfS0_Rb
000000000005c9f4 T _ZN12Spectrograph16GetShutterValuesEPiS0_S0_S0_PfS1_S1_
0000000000060212 T _ZN12Spectrograph16GetSlitFromStepsEiPf
000000000005d9b2 T _ZN12Spectrograph16ResetFocusMirrorEv
000000000005db7e T _ZN12Spectrograph16SetOpticalParamsEfff
000000000006176c T _ZN12Spectrograph17GetAccessoryStateEiRb
000000000005f290 T _ZN12Spectrograph17GetDetectorOffsetEiiPi
000000000006133e T _ZN12Spectrograph17GetMirrorPositionERb
000000000005dc2a T _ZN12Spectrograph17GetNumberGratingsEPi
000000000005cacc T _ZN12Spectrograph17SaveShutterValuesEiiiifff
0000000000061638 T _ZN12Spectrograph17SetAccessoryStateEib
0000000000061420 T _ZN12Spectrograph17SetMirrorPositionEb
000000000005d358 T _ZN12Spectrograph17resetFilterFPGA23Ev
000000000005d9f4 T _ZN12Spectrograph18GetFocusMirrorTiltEPi
000000000005d9e2 T _ZN12Spectrograph18SetFocusMirrorTiltEi
00000000000611fc T _ZN12Spectrograph19GetCurrentSlitStepsEiPi
0000000000060f06 T _ZN12Spectrograph19GetCurrentWaveStepsEPi
000000000005e56c T _ZN12Spectrograph19GetWavelengthLimitsEiPfS0_
0000000000061844 T _ZN12Spectrograph19IsAccessoryAttachedEv
000000000005f2d8 T _ZN12Spectrograph19ModifyGratingOffsetEii
000000000005d9c2 T _ZN12Spectrograph20FocusMirrorAutoFocusEv
000000000005f060 T _ZN12Spectrograph20ModifyDetectorOffsetEi
000000000005f0be T _ZN12Spectrograph20ModifyDetectorOffsetEiii
0000000000060af2 T _ZN12Spectrograph20ReadSlitCoefficientsERiS0_S0_S0_
0000000000060ffc T _ZN12Spectrograph20SaveCurrentSlitStepsEii
0000000000060dcc T _ZN12Spectrograph20SaveCurrentWaveStepsEi
000000000005d132 T _ZN12Spectrograph20resetFilterPreFPGA23Ev
000000000006245e T _ZN12Spectrograph21QuickReadSerialNumberEPci
0000000000060b32 T _ZN12Spectrograph21WriteSlitCoefficientsEiiii
000000000005d994 T _ZN12Spectrograph22GetFocusMirrorMaxStepsEPi
000000000005da5a T _ZN12Spectrograph24GetFocusMirrorTiltOffsetEPi
000000000005da78 T _ZN12Spectrograph24GetFocusMirrorTiltOffsetEiiPi
000000000005da30 T _ZN12Spectrograph24SetFocusMirrorTiltOffsetEi
000000000005da42 T _ZN12Spectrograph24SetFocusMirrorTiltOffsetEiii
000000000005d9d2 T _ZN12Spectrograph26FocusMirrorCancelAutoFocusEv
000000000005da12 T _ZN12Spectrograph26GetFocusMirrorTiltMaxStepsEPi
0000000000062092 T _ZN12Spectrograph5PulseEiii
000000000005c5c4 T _ZN12Spectrograph6DetectEv
0000000000060b6c T _ZN12Spectrograph6SearchEiiii
000000000005cffc T _ZN12Spectrograph7ExecuteEi
000000000005daae T _ZN12Spectrograph7GetIrisEPi
000000000006007a T _ZN12Spectrograph7GetSlitEiPf
0000000000061d40 T _ZN12Spectrograph7ReadIPsEi
000000000005da9c T _ZN12Spectrograph7SetIrisEi
00000000000602cc T _ZN12Spectrograph7SetSlitEif
000000000005ff30 T _ZN12Spectrograph8MySearchEiiiiiiiii
0000000000061a68 T _ZN12Spectrograph8SendDataEi
000000000005d4a2 T _ZN12Spectrograph9GetFilterEPi
000000000006243a T _ZN12Spectrograph9GetTurretERi
000000000005dacc T _ZN12Spectrograph9ResetIrisEv
0000000000060734 T _ZN12Spectrograph9ResetSlitEib
000000000005d54c T _ZN12Spectrograph9SetFilterEi
000000000006234e T _ZN12Spectrograph9SetTurretEi
000000000005c446 T _ZN12SpectrographC1EP13TI2CInterfaceb
000000000005c446 T _ZN12SpectrographC2EP13TI2CInterfaceb
000000000005c588 T _ZN12SpectrographD1Ev
000000000005c588 T _ZN12SpectrographD2Ev
0000000000059140 T _ZN12TCalibration13GetPixelWidthERf
00000000000590ec T _ZN12TCalibration13SetPixelWidthEf
0000000000059390 T _ZN12TCalibration14GetCalibrationEPfi
00000000000591a2 T _ZN12TCalibration15GetNumberPixelsERi
000000000005911a T _ZN12TCalibration15SetNumberPixelsEi
0000000000059208 T _ZN12TCalibration16SetupCalibrationERN21TCalibrationAlgorithm10TConstantsE
000000000005943e T _ZN12TCalibration23GetCalibrationConstantsEPfS0_S0_S0_
000000000005907c T _ZN12TCalibrationC1EP18TDetectorInterfaceP21TSpectrographHardware
000000000005907c T _ZN12TCalibrationC2EP18TDetectorInterfaceP21TSpectrographHardware
0000000000089d5e W _ZN13TDeviceClientC1Ev
0000000000089d5e W _ZN13TDeviceClientC2Ev
0000000000089c90 W _ZN13TDeviceClientD0Ev
0000000000089c5a W _ZN13TDeviceClientD1Ev
0000000000089c5a W _ZN13TDeviceClientD2Ev
00000000000969a2 T _ZN13TDeviceServer10DisconnectEP13TDeviceClient
0000000000096a4c T _ZN13TDeviceServer12StateChangedEv
0000000000096954 T _ZN13TDeviceServer7ConnectEP13TDeviceClient
0000000000084dee W _ZN13TDeviceServer9IsPresentEv
000000000009689e T _ZN13TDeviceServerC1Eii
0000000000096858 T _ZN13TDeviceServerC1Ev
000000000009689e T _ZN13TDeviceServerC2Eii
0000000000096858 T _ZN13TDeviceServerC2Ev
000000000009692e T _ZN13TDeviceServerD0Ev
00000000000968e8 T _ZN13TDeviceServerD1Ev
00000000000968e8 T _ZN13TDeviceServerD2Ev
000000000008ccd0 W _ZN13TI2CInterface13EepromProtectEj
000000000008cce2 W _ZN13TI2CInterface17EnableExternalBusEj
000000000008ccf4 W _ZN13TI2CInterfaceC1Ev
000000000008ccf4 W _ZN13TI2CInterfaceC2Ev
000000000008ccaa W _ZN13TI2CInterfaceD0Ev
000000000008cc74 W _ZN13TI2CInterfaceD1Ev
000000000008cc74 W _ZN13TI2CInterfaceD2Ev
00000000000982b8 T _ZN13TSDKAccessory12SetAccessoryEib
000000000009838e T _ZN13TSDKAccessory17GetAccessoryStateEi
0000000000098450 T _ZN13TSDKAccessory9IsPresentEv
000000000009827c T _ZN13TSDKAccessoryC1EP12Spectrograph
000000000009827c T _ZN13TSDKAccessoryC2EP12Spectrograph
000000000009851a W _ZN13TSDKAccessoryD0Ev
00000000000984d8 W _ZN13TSDKAccessoryD1Ev
00000000000984d8 W _ZN13TSDKAccessoryD2Ev
000000000007c788 T _ZN13TZolixControl10CheckForOKESs
000000000007c646 T _ZN13TZolixControl10ReadStringERSs
000000000007ca42 T _ZN13TZolixControl11GetResponseERSs
000000000007cc24 T _ZN13TZolixControl11WriteStringESs
000000000007c842 T _ZN13TZolixControl13CheckForErrorESsRi
000000000007cca0 T _ZN13TZolixControl14TranslateErrorEj
000000000007c6e6 T _ZN13TZolixControl19ReadAndAppendStringERSs
000000000007cd48 T _ZN13TZolixControl20TranslateStringErrorESs
000000000007c5ee T _ZN13TZolixControl8ReadCharERc
000000000007bfee W _ZN13TZolixControlC1Ev
000000000007bfee W _ZN13TZolixControlC2Ev
000000000007bfc8 W _ZN13TZolixControlD0Ev
000000000007bf92 W _ZN13TZolixControlD1Ev
000000000007bf92 W _ZN13TZolixControlD2Ev
00000000000845d2 T _ZN13TZolixFactory10CreateIrisEN17ISpectrographIris9TPositionE
0000000000084300 T _ZN13TZolixFactory10CreateSlitEN17ISpectrographSlit13TSlitPositionE
0000000000084516 T _ZN13TZolixFactory12CreateEepromEv
0000000000084366 T _ZN13TZolixFactory12CreateFilterEv
0000000000084084 T _ZN13TZolixFactory13CreateFlipperEN20ISpectrographFlipper16TFlipperPositionE
0000000000084188 T _ZN13TZolixFactory13CreateGratingEv
00000000000844a6 T _ZN13TZolixFactory13CreateShutterEv
0000000000084574 T _ZN13TZolixFactory15CreateAccessoryEv
000000000005c434 W _ZN13TZolixFactory15GetSpectrographEv
00000000000841f6 T _ZN13TZolixFactory16CreateWavelengthEv
00000000000843c4 T _ZN13TZolixFactory17CreateFocusMirrorEv
0000000000084504 T _ZN13TZolixFactory18CreateSpectrographEv
0000000000084442 T _ZN13TZolixFactory21CreateFocusMirrorTiltEv
0000000000083f6e T _ZN13TZolixFactoryC1EP16TZolixOmniLambda
0000000000083f6e T _ZN13TZolixFactoryC2EP16TZolixOmniLambda
000000000008405e T _ZN13TZolixFactoryD0Ev
000000000008401c T _ZN13TZolixFactoryD1Ev
000000000008401c T _ZN13TZolixFactoryD2Ev
000000000008a098 T _ZN13TZolixShutter14ExternalChangeEv
000000000008a08e T _ZN13TZolixShutter17LoadShutterValuesEv
0000000000089e60 T _ZN13TZolixShutter18GetExternalShutterEv
0000000000089f5e T _ZN13TZolixShutter18GetInternalShutterEv
0000000000089e1e T _ZN13TZolixShutter18SetExternalShutterEi
0000000000089ee0 T _ZN13TZolixShutter18SetInternalShutterEi
0000000000089e9e T _ZN13TZolixShutter22IsExternalModePossibleEi
000000000008a010 T _ZN13TZolixShutter22IsInternalModePossibleEi
0000000000089fc6 T _ZN13TZolixShutter24InternalShutterAvailableEv
000000000008a0be T _ZN13TZolixShutter9IsPresentEv
0000000000089d7a T _ZN13TZolixShutterC1EP16TZolixOmniLambda
0000000000089d7a T _ZN13TZolixShutterC2EP16TZolixOmniLambda
0000000000089df8 T _ZN13TZolixShutterD0Ev
0000000000089db6 T _ZN13TZolixShutterD1Ev
0000000000089db6 T _ZN13TZolixShutterD2Ev
0000000000071298 W _ZN13tagANDORPOINTC1Ev
0000000000071298 W _ZN13tagANDORPOINTC2Ev
00000000000980de T _ZN14TGlobalControl11IsDeviceSDKEi
0000000000098094 T _ZN14TGlobalControl11IsDeviceUSBEi
0000000000098044 T _ZN14TGlobalControl14IsSDKAvailableEv
0000000000097fc4 T _ZN14TGlobalControl14IsUSBAvailableEv
0000000000097ec0 T _ZN14TGlobalControl15GetI2CInterfaceEi
0000000000098122 T _ZN14TGlobalControl16GetDeviceAddressEiRiS0_
0000000000097e4c T _ZN14TGlobalControl16GetNumberDevicesEv
0000000000097e1a T _ZN14TGlobalControl18GetSDKI2CInterfaceEv
0000000000097f42 T _ZN14TGlobalControl20GetDetectorInterfaceEi
0000000000097bc8 T _ZN14TGlobalControlC1EPc
0000000000097bc8 T _ZN14TGlobalControlC2EPc
0000000000097df4 T _ZN14TGlobalControlD0Ev
0000000000097d2e T _ZN14TGlobalControlD1Ev
0000000000097d2e T _ZN14TGlobalControlD2Ev
000000000008d76c W _ZN14TI2CControllerC1Ev
000000000008d76c W _ZN14TI2CControllerC2Ev
000000000008d746 W _ZN14TI2CControllerD0Ev
000000000008d710 W _ZN14TI2CControllerD1Ev
000000000008d710 W _ZN14TI2CControllerD2Ev
000000000009b1f0 W _ZN14TSDKOutputSlit11GetSlitModeEv
000000000009b0a0 T _ZN14TSDKOutputSlit11GetSlitStepEv
000000000009b1e2 W _ZN14TSDKOutputSlit11SetSlitModeEPKc
000000000009af9a T _ZN14TSDKOutputSlit11UnsafeResetEv
000000000009b210 W _ZN14TSDKOutputSlit15GetZeroPositionEv
000000000009b202 W _ZN14TSDKOutputSlit15SetZeroPositionEi
000000000009ae94 T _ZN14TSDKOutputSlit5ResetEv
000000000009add2 T _ZN14TSDKOutputSlit7GetSlitEv
000000000009acc0 T _ZN14TSDKOutputSlit7SetSlitEf
000000000009b14a T _ZN14TSDKOutputSlit9IsPresentEv
000000000009ac84 T _ZN14TSDKOutputSlitC1EP12Spectrograph
000000000009ac84 T _ZN14TSDKOutputSlitC2EP12Spectrograph
000000000009b262 W _ZN14TSDKOutputSlitD0Ev
000000000009b220 W _ZN14TSDKOutputSlitD1Ev
000000000009b220 W _ZN14TSDKOutputSlitD2Ev
000000000009c000 T _ZN14TSDKWavelength11AtZeroOrderEv
000000000009c0bc T _ZN14TSDKWavelength13GetDispersionERfS0_
000000000009be36 T _ZN14TSDKWavelength13GetWavelengthEv
000000000009befe T _ZN14TSDKWavelength13GotoZeroOrderEv
000000000009bd2a T _ZN14TSDKWavelength13SetWavelengthEf
000000000009c21c T _ZN14TSDKWavelength15GetDispersionAtEfRfS0_iii
000000000009c176 T _ZN14TSDKWavelength16GetDispersionForEfRfS0_i
000000000009c3f4 W _ZN14TSDKWavelength21InvalidateCachedValueEv
000000000009c31c T _ZN14TSDKWavelength26GetCurrentWaveStepPositionEv
000000000009c384 T _ZN14TSDKWavelength9IsPresentEv
000000000009bcee T _ZN14TSDKWavelengthC1EP12Spectrograph
000000000009bcee T _ZN14TSDKWavelengthC2EP12Spectrograph
000000000009c440 W _ZN14TSDKWavelengthD0Ev
000000000009c3fe W _ZN14TSDKWavelengthD1Ev
000000000009c3fe W _ZN14TSDKWavelengthD2Ev
000000000005c3cc T _ZN14TZolixHardware10InitialiseEv
000000000005c0d2 T _ZN14TZolixHardwareC1EP16TZolixOmniLambda
000000000005c0d2 T _ZN14TZolixHardwareC2EP16TZolixOmniLambda
000000000005c3a6 T _ZN14TZolixHardwareD0Ev
000000000005c33a T _ZN14TZolixHardwareD1Ev
000000000005c33a T _ZN14TZolixHardwareD2Ev
0000000000090af4 W _ZN15CSimpleIniTemplIc16SI_GenericNoCaseIcE11SI_ConvertAIcEE10CopyStringERPKc
000000000009682e W _ZN15CSimpleIniTemplIc16SI_GenericNoCaseIcE11SI_ConvertAIcEE10FileWriter5WriteEPKc
0000000000091332 W _ZN15CSimpleIniTemplIc16SI_GenericNoCaseIcE11SI_ConvertAIcEE10FileWriterC1EP8_IO_FILE
0000000000091332 W _ZN15CSimpleIniTemplIc16SI_GenericNoCaseIcE11SI_ConvertAIcEE10FileWriterC2EP8_IO_FILE
0000000000090510 W _ZN15CSimpleIniTemplIc16SI_GenericNoCaseIcE11SI_ConvertAIcEE10FileWriterD0Ev
00000000000904ce W _ZN15CSimpleIniTemplIc16SI_GenericNoCaseIcE11SI_ConvertAIcEE10FileWriterD1Ev
00000000000904ce W _ZN15CSimpleIniTemplIc16SI_GenericNoCaseIcE11SI_ConvertAIcEE10FileWriterD2Ev
0000000000090e24 W _ZN15CSimpleIniTemplIc16SI_GenericNoCaseIcE11SI_ConvertAIcEE12DeleteStringEPKc
0000000000092db6 W _ZN15CSimpleIniTemplIc16SI_GenericNoCaseIcE11SI_ConvertAIcEE12OutputWriterC1Ev
0000000000092db6 W _ZN15CSimpleIniTemplIc16SI_GenericNoCaseIcE11SI_ConvertAIcEE12OutputWriterC2Ev
00000000000913a4 W _ZN15CSimpleIniTemplIc16SI_GenericNoCaseIcE11SI_ConvertAIcEE12OutputWriterD0Ev
000000000009136e W _ZN15CSimpleIniTemplIc16SI_GenericNoCaseIcE11SI_ConvertAIcEE12OutputWriterD1Ev
000000000009136e W _ZN15CSimpleIniTemplIc16SI_GenericNoCaseIcE11SI_ConvertAIcEE12OutputWriterD2Ev
0000000000091fbc W _ZN15CSimpleIniTemplIc16SI_GenericNoCaseIcE11SI_ConvertAIcEE15FindFileCommentERPcb
0000000000094e12 W _ZN15CSimpleIniTemplIc16SI_GenericNoCaseIcE11SI_ConvertAIcEE5EntryC1EPKcS7_i
0000000000090b9e W _ZN15CSimpleIniTemplIc16SI_GenericNoCaseIcE11SI_ConvertAIcEE5EntryC1EPKci
0000000000090c84 W _ZN15CSimpleIniTemplIc16SI_GenericNoCaseIcE11SI_ConvertAIcEE5EntryC1ERKS5_
0000000000094e12 W _ZN15CSimpleIniTemplIc16SI_GenericNoCaseIcE11SI_ConvertAIcEE5EntryC2EPKcS7_i
0000000000090b9e W _ZN15CSimpleIniTemplIc16SI_GenericNoCaseIcE11SI_ConvertAIcEE5EntryC2EPKci
0000000000090c84 W _ZN15CSimpleIniTemplIc16SI_GenericNoCaseIcE11SI_ConvertAIcEE5EntryC2ERKS5_
00000000000927ee W _ZN15CSimpleIniTemplIc16SI_GenericNoCaseIcE11SI_ConvertAIcEE5EntryaSERKS5_
000000000008fa6e W _ZN15CSimpleIniTemplIc16SI_GenericNoCaseIcE11SI_ConvertAIcEE5ResetEv
0000000000090f00 W _ZN15CSimpleIniTemplIc16SI_GenericNoCaseIcE11SI_ConvertAIcEE6DeleteEPKcS6_b
000000000008fe16 W _ZN15CSimpleIniTemplIc16SI_GenericNoCaseIcE11SI_ConvertAIcEE8AddEntryEPKcS6_S6_S6_bb
00000000000908cc W _ZN15CSimpleIniTemplIc16SI_GenericNoCaseIcE11SI_ConvertAIcEE8LoadDataEPKcm
000000000008fbfe W _ZN15CSimpleIniTemplIc16SI_GenericNoCaseIcE11SI_ConvertAIcEE8LoadFileEP8_IO_FILE
000000000008f894 W _ZN15CSimpleIniTemplIc16SI_GenericNoCaseIcE11SI_ConvertAIcEE8LoadFileEPKc
000000000008f8f0 W _ZN15CSimpleIniTemplIc16SI_GenericNoCaseIcE11SI_ConvertAIcEE8SetValueEPKcS6_S6_S6_b
00000000000932d2 W _ZN15CSimpleIniTemplIc16SI_GenericNoCaseIcE11SI_ConvertAIcEE9Converter14ConvertToStoreEPKc
000000000009338c W _ZN15CSimpleIniTemplIc16SI_GenericNoCaseIcE11SI_ConvertAIcEE9Converter4DataEv
0000000000092dd2 W _ZN15CSimpleIniTemplIc16SI_GenericNoCaseIcE11SI_ConvertAIcEE9ConverterC1Eb
0000000000092dd2 W _ZN15CSimpleIniTemplIc16SI_GenericNoCaseIcE11SI_ConvertAIcEE9ConverterC2Eb
00000000000913ca W _ZN15CSimpleIniTemplIc16SI_GenericNoCaseIcE11SI_ConvertAIcEE9ConverterD1Ev
00000000000913ca W _ZN15CSimpleIniTemplIc16SI_GenericNoCaseIcE11SI_ConvertAIcEE9ConverterD2Ev
000000000008f7a2 W _ZN15CSimpleIniTemplIc16SI_GenericNoCaseIcE11SI_ConvertAIcEEC1Ebbb
000000000008f7a2 W _ZN15CSimpleIniTemplIc16SI_GenericNoCaseIcE11SI_ConvertAIcEEC2Ebbb
000000000008f85a W _ZN15CSimpleIniTemplIc16SI_GenericNoCaseIcE11SI_ConvertAIcEED1Ev
000000000008f85a W _ZN15CSimpleIniTemplIc16SI_GenericNoCaseIcE11SI_ConvertAIcEED2Ev
000000000008d8c8 T _ZN15TSDKFocusMirror14GetMirrorFocusEv
000000000008d7c4 T _ZN15TSDKFocusMirror14SetMirrorFocusEi
000000000008da38 T _ZN15TSDKFocusMirror16ResetFocusMirrorEv
000000000008dbbe T _ZN15TSDKFocusMirror18GetFocusMirrorTiltEv
000000000008dbb0 T _ZN15TSDKFocusMirror18SetFocusMirrorTiltEi
000000000008db70 T _ZN15TSDKFocusMirror20FocusMirrorAutoFocusEv
000000000008dbce T _ZN15TSDKFocusMirror20ResetFocusMirrorTiltEv
000000000008d980 T _ZN15TSDKFocusMirror22GetFocusMirrorMaxStepsEv
000000000008dc0a T _ZN15TSDKFocusMirror24GetFocusMirrorTiltOffsetEii
000000000008dbe6 T _ZN15TSDKFocusMirror24GetFocusMirrorTiltOffsetEv
000000000008dbd8 T _ZN15TSDKFocusMirror24SetFocusMirrorTiltOffsetEi
000000000008dbf6 T _ZN15TSDKFocusMirror24SetFocusMirrorTiltOffsetEiii
000000000008db80 T _ZN15TSDKFocusMirror26FocusMirrorCancelAutoFocusEv
000000000008dba0 T _ZN15TSDKFocusMirror26GetFocusMirrorTiltMaxStepsEv
000000000008db90 T _ZN15TSDKFocusMirror26IsFocusMirrorTiltAvailableEv
000000000008db34 T _ZN15TSDKFocusMirror9IsPresentEv
000000000008d788 T _ZN15TSDKFocusMirrorC1EP12Spectrograph
000000000008d788 T _ZN15TSDKFocusMirrorC2EP12Spectrograph
000000000008dcbe W _ZN15TSDKFocusMirrorD0Ev
000000000008dc7c W _ZN15TSDKFocusMirrorD1Ev
000000000008dc7c W _ZN15TSDKFocusMirrorD2Ev
000000000008ca26 T _ZN16OffsetAdjustment12printMessageEPc
000000000008ca56 T _ZN16OffsetAdjustment18DoOffsetAdjustmentEv
000000000008ca60 T _ZN16OffsetAdjustment22CancelOffsetAdjustmentEv
000000000008ca4c T _ZN16OffsetAdjustment3runEv
000000000008ca34 T _ZN16OffsetAdjustment6maxPosEiii
000000000008b7e6 W _ZN16OffsetAdjustmentC1Ev
000000000008b7e6 W _ZN16OffsetAdjustmentC2Ev
000000000008b7f0 W _ZN16OffsetAdjustmentD1Ev
000000000008b7f0 W _ZN16OffsetAdjustmentD2Ev
000000000009a9b8 T _ZN16TSDKI2CInterface10BurstWriteEhlPKh
000000000009ab66 T _ZN16TSDKI2CInterface13EepromProtectEj
000000000009ab0e T _ZN16TSDKI2CInterface17EnableExternalBusEj
000000000009a93a T _ZN16TSDKI2CInterface4ReadEhhPh
000000000009a8be T _ZN16TSDKI2CInterface5WriteEhhh
000000000009aa90 T _ZN16TSDKI2CInterface9BurstReadEhlPh
000000000009a836 T _ZN16TSDKI2CInterfaceC1EPFjhhPhEPFjhhhEPFjhlS0_ES6_PFjjES8_
000000000009a836 T _ZN16TSDKI2CInterfaceC2EPFjhhPhEPFjhhhEPFjhlS0_ES6_PFjjES8_
000000000009ac5e W _ZN16TSDKI2CInterfaceD0Ev
000000000009ac1c W _ZN16TSDKI2CInterfaceD1Ev
000000000009ac1c W _ZN16TSDKI2CInterfaceD2Ev
000000000005aff8 T _ZN16TSpectrographSDK19GetSpectrographListEv
000000000005af6e T _ZN16TSpectrographSDK22CreateSpectrographListEPc
000000000005aed0 T _ZN16TSpectrographSDK4KillEv
000000000005ae74 T _ZN16TSpectrographSDK8InstanceEv
00000000002dd0a0 B _ZN16TSpectrographSDK9mInstanceE
000000000005af1c T _ZN16TSpectrographSDKC1Ev
000000000005af1c T _ZN16TSpectrographSDKC2Ev
000000000005af32 T _ZN16TSpectrographSDKD1Ev
000000000005af32 T _ZN16TSpectrographSDKD2Ev
000000000009cb8a T _ZN16TUSBI2CInterface10BurstWriteEhlPKh
000000000009cac0 T _ZN16TUSBI2CInterface4ReadEhhPh
000000000009c9fa T _ZN16TUSBI2CInterface5WriteEhhh
000000000009cd02 T _ZN16TUSBI2CInterface9BurstReadEhlPh
000000000009c99e T _ZN16TUSBI2CInterfaceC1EPvPFbS0_P10_I2C_TRANSES4_
000000000009c99e T _ZN16TUSBI2CInterfaceC2EPvPFbS0_P10_I2C_TRANSES4_
000000000009ce2c W _ZN16TUSBI2CInterfaceD0Ev
000000000009cdea W _ZN16TUSBI2CInterfaceD1Ev
000000000009cdea W _ZN16TUSBI2CInterfaceD2Ev
000000000007c116 T _ZN16TZolixControlI2C10I2CReceiveEhPvjPj
000000000007c24a T _ZN16TZolixControlI2C11I2CTransmitEhPvjPj
000000000007c0ae T _ZN16TZolixControlI2C11IsAvailableEv
000000000007c2b6 T _ZN16TZolixControlI2C11ListDevicesEPvS0_j
000000000007c374 T _ZN16TZolixControlI2C11SetTimeoutsEjj
000000000007c39c T _ZN16TZolixControlI2C18ClearReceiveBufferEh
000000000007c2d0 T _ZN16TZolixControlI2C4OpenEi
000000000007c2f2 T _ZN16TZolixControlI2C4ReadEPvjPj
000000000007c2e2 T _ZN16TZolixControlI2C5CloseEv
000000000007c38a T _ZN16TZolixControlI2C5PurgeEj
000000000007c32a T _ZN16TZolixControlI2C5WriteEPvjPj
000000000007c00a T _ZN16TZolixControlI2CC1EP13TI2CInterface
000000000007c00a T _ZN16TZolixControlI2CC2EP13TI2CInterface
000000000007c088 T _ZN16TZolixControlI2CD0Ev
000000000007c046 T _ZN16TZolixControlI2CD1Ev
000000000007c046 T _ZN16TZolixControlI2CD2Ev
000000000007c4e8 T _ZN16TZolixControlIPC11IsAvailableEv
000000000007c4f8 T _ZN16TZolixControlIPC11ListDevicesEPvS0_j
000000000007c568 T _ZN16TZolixControlIPC11SetTimeoutsEjj
000000000007c512 T _ZN16TZolixControlIPC4OpenEi
000000000007c534 T _ZN16TZolixControlIPC4ReadEPvjPj
000000000007c524 T _ZN16TZolixControlIPC5CloseEv
000000000007c57e T _ZN16TZolixControlIPC5PurgeEj
000000000007c54e T _ZN16TZolixControlIPC5WriteEPvjPj
000000000007c454 T _ZN16TZolixControlIPCC1Ev
000000000007c454 T _ZN16TZolixControlIPCC2Ev
000000000007c4c2 T _ZN16TZolixControlIPCD0Ev
000000000007c480 T _ZN16TZolixControlIPCD1Ev
000000000007c480 T _ZN16TZolixControlIPCD2Ev
000000000007bda2 T _ZN16TZolixControlUSB11IsAvailableEv
000000000007bdb4 T _ZN16TZolixControlUSB11ListDevicesEPvS0_j
000000000007bee2 T _ZN16TZolixControlUSB11SetTimeoutsEjj
000000000007bbf4 T _ZN16TZolixControlUSB14GetDeviceIndexEv
000000000007bd64 T _ZN16TZolixControlUSB14IsValidProductE25_ft_device_list_info_node
000000000007bbe4 T _ZN16TZolixControlUSB19SetFunctionPointersEv
000000000007bde4 T _ZN16TZolixControlUSB4OpenEi
000000000007be66 T _ZN16TZolixControlUSB4ReadEPvjPj
000000000007be24 T _ZN16TZolixControlUSB5CloseEv
000000000007bf0e T _ZN16TZolixControlUSB5PurgeEj
000000000007beae T _ZN16TZolixControlUSB5WriteEPvjPj
000000000007bad2 T _ZN16TZolixControlUSBC1Ev
000000000007bad2 T _ZN16TZolixControlUSBC2Ev
000000000007bbbe T _ZN16TZolixControlUSBD0Ev
000000000007bb70 T _ZN16TZolixControlUSBD1Ev
000000000007bb70 T _ZN16TZolixControlUSBD2Ev
00000000000748ca T _ZN16TZolixOmniLambda10FilterHomeEv
0000000000072678 T _ZN16TZolixOmniLambda10GetGratingERi
00000000000767b8 T _ZN16TZolixOmniLambda10RawCommandEPKcPc
0000000000077c6c T _ZN16TZolixOmniLambda10ReadEepromEv
00000000000776a4 T _ZN16TZolixOmniLambda10TurretSafeEv
000000000007346a T _ZN16TZolixOmniLambda11GetExitPortERi
0000000000072f7c T _ZN16TZolixOmniLambda11GetGratingsEPfPPc
0000000000077e7a T _ZN16TZolixOmniLambda11GetIDStringEv
0000000000071f70 T _ZN16TZolixOmniLambda11GetSaveInfoEiRi
00000000000784b2 T _ZN16TZolixOmniLambda11GetSinPhaseEv
0000000000075ad4 T _ZN16TZolixOmniLambda11GetSlitModeEiRc
0000000000072558 T _ZN16TZolixOmniLambda11GratingHomeEv
00000000000735e0 T _ZN16TZolixOmniLambda11SetExitPortEi
0000000000077eae T _ZN16TZolixOmniLambda11SetIDStringEPKc
0000000000078576 T _ZN16TZolixOmniLambda11SetSinPhaseEf
0000000000075c9c T _ZN16TZolixOmniLambda11SetSlitModeEiPc
0000000000077cae T _ZN16TZolixOmniLambda11WriteEepromEv
000000000007822e T _ZN16TZolixOmniLambda12GetPlaneTiltEv
0000000000076642 T _ZN16TZolixOmniLambda12GetPortStateERi
0000000000075e16 T _ZN16TZolixOmniLambda12GetSlitWidthEiRi
00000000000782ea T _ZN16TZolixOmniLambda12SetPlaneTiltEf
0000000000076504 T _ZN16TZolixOmniLambda12SetPortStateEi
0000000000075faa T _ZN16TZolixOmniLambda12SetSlitWidthEii
00000000000781ea T _ZN16TZolixOmniLambda13GetAngularDevEv
000000000007318c T _ZN16TZolixOmniLambda13GetEepromInfoEPiPfS0_
00000000000749ea T _ZN16TZolixOmniLambda13GetFilterModeEPc
0000000000073d76 T _ZN16TZolixOmniLambda13GetMotorStepsEiRi
0000000000071ad6 T _ZN16TZolixOmniLambda13GetSystemInfoEPc
0000000000071468 T _ZN16TZolixOmniLambda13GetSystemTypeEv
0000000000072c1a T _ZN16TZolixOmniLambda13GetTotalStepsERm
0000000000072628 T _ZN16TZolixOmniLambda13ResetPositionEv
00000000000782ae T _ZN16TZolixOmniLambda13SetAngularDevEf
0000000000074b5a T _ZN16TZolixOmniLambda13SetFilterModeEPc
0000000000073c32 T _ZN16TZolixOmniLambda13SetMotorStepsEii
00000000000713c4 T _ZN16TZolixOmniLambda14GetDeviceCountERi
000000000007794a T _ZN16TZolixOmniLambda14GetErrorStringEiPc
00000000000781a6 T _ZN16TZolixOmniLambda14GetFocalLengthEv
0000000000074c7e T _ZN16TZolixOmniLambda14GetMirrorFocusERi
0000000000078b0c T _ZN16TZolixOmniLambda14GetNoOfTurretsEv
00000000000741a0 T _ZN16TZolixOmniLambda14GetPeripheralsEPPcRi
0000000000072d90 T _ZN16TZolixOmniLambda14GetRawGratingsERSs
0000000000076daa T _ZN16TZolixOmniLambda14GetShutterModeERi
0000000000078f60 T _ZN16TZolixOmniLambda14ReadEepromByteEiRh
0000000000078272 T _ZN16TZolixOmniLambda14SetFocalLengthEf
0000000000074f6a T _ZN16TZolixOmniLambda14SetMirrorFocusEi
0000000000078b3e T _ZN16TZolixOmniLambda14SetNoOfTurretsEi
000000000007444a T _ZN16TZolixOmniLambda14SetPeripheralsEPPci
0000000000076f3a T _ZN16TZolixOmniLambda14SetShutterModeEi
0000000000077bac T _ZN16TZolixOmniLambda14TranslateErrorEi
00000000000750de T _ZN16TZolixOmniLambda15FocusMirrorHomeEv
0000000000078b78 T _ZN16TZolixOmniLambda15GetActiveTurretEv
000000000007371e T _ZN16TZolixOmniLambda15GetEntrancePortERi
0000000000078a1a T _ZN16TZolixOmniLambda15GetFilterStringEi
0000000000078926 T _ZN16TZolixOmniLambda15GetGratingBlazeEii
000000000007888c T _ZN16TZolixOmniLambda15GetGratingLinesEii
0000000000078790 T _ZN16TZolixOmniLambda15GetGratingStartEii
0000000000077260 T _ZN16TZolixOmniLambda15GetIrisPositionEiRi
0000000000078172 T _ZN16TZolixOmniLambda15GetModifiedDateEv
0000000000078a92 T _ZN16TZolixOmniLambda15GetNoOfGratingsEi
0000000000077fbe T _ZN16TZolixOmniLambda15GetSerialNumberEv
000000000007846e T _ZN16TZolixOmniLambda15GetSinAmplitudeEv
00000000000784f6 T _ZN16TZolixOmniLambda15GetSinFrequencyEv
0000000000071c46 T _ZN16TZolixOmniLambda15GetSystemInfoExEPcS0_S0_S0_S0_
0000000000078326 T _ZN16TZolixOmniLambda15IsGAFAAvailableEv
0000000000078e80 T _ZN16TZolixOmniLambda15ReadEepromFloatEiRf
0000000000078daa T _ZN16TZolixOmniLambda15ReadEepromInt32EiRi
0000000000078baa T _ZN16TZolixOmniLambda15SetActiveTurretEi
0000000000073894 T _ZN16TZolixOmniLambda15SetEntrancePortEi
0000000000078a56 T _ZN16TZolixOmniLambda15SetFilterStringEiPKc
0000000000078968 T _ZN16TZolixOmniLambda15SetGratingBlazeEiiPKc
00000000000788de T _ZN16TZolixOmniLambda15SetGratingLinesEiif
00000000000787d0 T _ZN16TZolixOmniLambda15SetGratingStartEiii
00000000000773f4 T _ZN16TZolixOmniLambda15SetIrisPositionEii
0000000000078acc T _ZN16TZolixOmniLambda15SetNoOfGratingsEii
0000000000077ff2 T _ZN16TZolixOmniLambda15SetSerialNumberEPKc
000000000007853a T _ZN16TZolixOmniLambda15SetSinAmplitudeEf
00000000000785b2 T _ZN16TZolixOmniLambda15SetSinFrequencyEf
0000000000078fa2 T _ZN16TZolixOmniLambda15WriteEepromByteEih
0000000000075910 T _ZN16TZolixOmniLambda16CountPeripheralsEPPKcjb
0000000000078712 T _ZN16TZolixOmniLambda16GetGratingOffsetEii
0000000000078fda T _ZN16TZolixOmniLambda16ResetExitFlipperEv
0000000000078752 T _ZN16TZolixOmniLambda16SetGratingOffsetEiii
0000000000078ef6 T _ZN16TZolixOmniLambda16WriteEepromFloatEif
0000000000078e18 T _ZN16TZolixOmniLambda16WriteEepromInt32Eii
000000000007880e T _ZN16TZolixOmniLambda17GetDetectorOffsetEii
0000000000075a48 T _ZN16TZolixOmniLambda17GetInputSlitCountEv
000000000007163e T _ZN16TZolixOmniLambda17OpenShortTimeoutsEi
0000000000077566 T _ZN16TZolixOmniLambda17ResetIrisPositionEi
000000000007884e T _ZN16TZolixOmniLambda17SetDetectorOffsetEiii
0000000000075374 T _ZN16TZolixOmniLambda18GetFocusMirrorTiltERi
0000000000078098 T _ZN16TZolixOmniLambda18GetManufactureDateEv
00000000000739d2 T _ZN16TZolixOmniLambda18GetMotorTotalStepsEiRi
0000000000075a8e T _ZN16TZolixOmniLambda18GetOutputSlitCountEv
00000000000754ea T _ZN16TZolixOmniLambda18SetFocusMirrorTiltEi
00000000000780cc T _ZN16TZolixOmniLambda18SetManufactureDateEPKc
00000000000767fe T _ZN16TZolixOmniLambda19GetConfigSystemDataEiRSs
000000000007622c T _ZN16TZolixOmniLambda19GetSlitZeroPositionEiRi
0000000000077ee4 T _ZN16TZolixOmniLambda19GetStructureVersionEv
00000000000783de T _ZN16TZolixOmniLambda19GetWaveToStepsCoeffEi
00000000000718f4 T _ZN16TZolixOmniLambda19RestoreLongTimeoutsEv
0000000000076982 T _ZN16TZolixOmniLambda19SetConfigSystemDataEiSs
00000000000763c0 T _ZN16TZolixOmniLambda19SetSlitZeroPositionEii
0000000000077f18 T _ZN16TZolixOmniLambda19SetStructureVersionEPKc
000000000007842a T _ZN16TZolixOmniLambda19SetWaveToStepsCoeffEif
0000000000078676 T _ZN16TZolixOmniLambda20GetCurrentWavelengthEv
00000000000785ee T _ZN16TZolixOmniLambda20GetWaveToStepsEnableEv
0000000000077088 T _ZN16TZolixOmniLambda20IsPortShutterPresentERi
00000000000786c8 T _ZN16TZolixOmniLambda20SetCurrentWavelengthEf
0000000000078630 T _ZN16TZolixOmniLambda20SetWaveToStepsEnableEh
0000000000074df4 T _ZN16TZolixOmniLambda22GetFocusMirrorMaxStepsERi
0000000000075776 T _ZN16TZolixOmniLambda24GetFocusMirrorTiltOffsetEiiRi
0000000000077208 T _ZN16TZolixOmniLambda24InternalShutterAvailableEv
0000000000075628 T _ZN16TZolixOmniLambda24SetFocusMirrorTiltOffsetEiii
0000000000077cf0 T _ZN16TZolixOmniLambda25GetEepromStructureVersionESsPiS0_
00000000000751fe T _ZN16TZolixOmniLambda26GetFocusMirrorTiltMaxStepsERi
0000000000077db6 T _ZN16TZolixOmniLambda26WriteOpticalParamsToEEPROMEfff
0000000000078c26 T _ZN16TZolixOmniLambda27GetActiveTurretGratingBlazeEi
0000000000078c72 T _ZN16TZolixOmniLambda27GetActiveTurretGratingLinesEi
0000000000078ccc T _ZN16TZolixOmniLambda27GetActiveTurretGratingStartEi
0000000000078be4 T _ZN16TZolixOmniLambda27GetActiveTurretNoOfGratingsEv
0000000000077e24 T _ZN16TZolixOmniLambda27ReadOpticalParamsFromEEPROMEPfS0_S0_
0000000000078d16 T _ZN16TZolixOmniLambda28GetActiveTurretGratingOffsetEi
0000000000078d62 T _ZN16TZolixOmniLambda28SetActiveTurretGratingOffsetEii
000000000007790e T _ZN16TZolixOmniLambda44TranslateSDKShutterModeToInternalShutterModeEi
0000000000071616 T _ZN16TZolixOmniLambda4OpenEi
0000000000071940 T _ZN16TZolixOmniLambda5CloseEv
0000000000071666 T _ZN16TZolixOmniLambda6DoOpenEib
0000000000071abe T _ZN16TZolixOmniLambda6IsOpenEv
00000000000723de T _ZN16TZolixOmniLambda6MoveToEf
0000000000078372 T _ZN16TZolixOmniLambda7GetGafaEv
0000000000072966 T _ZN16TZolixOmniLambda7GetStepERi
000000000007281e T _ZN16TZolixOmniLambda7GratingEi
00000000000783a8 T _ZN16TZolixOmniLambda7SetGafaEb
0000000000072adc T _ZN16TZolixOmniLambda7StepAbsEi
0000000000072248 T _ZN16TZolixOmniLambda8PositionERf
000000000007153e T _ZN16TZolixOmniLambda8ProbeI2CEv
00000000000715d8 T _ZN16TZolixOmniLambda8ProbeIPCEv
00000000000777c4 T _ZN16TZolixOmniLambda8ReadRFIDEv
0000000000072104 T _ZN16TZolixOmniLambda8SaveInfoEii
00000000000760ee T _ZN16TZolixOmniLambda8SlitHomeEi
0000000000086e84 W _ZN16TZolixOmniLambda9GetEepromEv
0000000000074616 T _ZN16TZolixOmniLambda9GetFilterERi
0000000000076af6 T _ZN16TZolixOmniLambda9GetTurretERi
0000000000073f0a T _ZN16TZolixOmniLambda9MotorHomeEi
0000000000074048 T _ZN16TZolixOmniLambda9MoveMotorEiiii
000000000007478c T _ZN16TZolixOmniLambda9SetFilterEi
0000000000076c6c T _ZN16TZolixOmniLambda9SetTurretEi
00000000000712d0 T _ZN16TZolixOmniLambdaC1EP13TI2CInterface
00000000000712d0 T _ZN16TZolixOmniLambdaC2EP13TI2CInterface
000000000007139e T _ZN16TZolixOmniLambdaD0Ev
000000000007134c T _ZN16TZolixOmniLambdaD1Ev
000000000007134c T _ZN16TZolixOmniLambdaD2Ev
000000000008991c T _ZN16TZolixWavelength11AtZeroOrderEv
0000000000089958 T _ZN16TZolixWavelength13GetDispersionERfS0_
0000000000089838 T _ZN16TZolixWavelength13GetWavelengthEv
00000000000898f4 T _ZN16TZolixWavelength13GotoZeroOrderEv
0000000000089bbe T _ZN16TZolixWavelength13ServerChangedEP13TDeviceServer
0000000000089734 T _ZN16TZolixWavelength13SetWavelengthEf
0000000000089ab8 T _ZN16TZolixWavelength15GetDispersionAtEfRfS0_iii
0000000000089a12 T _ZN16TZolixWavelength16GetDispersionForEfRfS0_i
0000000000089d28 W _ZN16TZolixWavelength21InvalidateCachedValueEv
0000000000089bee T _ZN16TZolixWavelength26GetCurrentWaveStepPositionEv
0000000000089530 T _ZN16TZolixWavelengthC1EP24TZolixSpectrographDeviceP25TSpectrographZolixGratingP24ISpectrographFocusMirror
0000000000089530 T _ZN16TZolixWavelengthC2EP24TZolixSpectrographDeviceP25TSpectrographZolixGratingP24ISpectrographFocusMirror
0000000000089708 T _ZN16TZolixWavelengthD0Ev
000000000008965e T _ZN16TZolixWavelengthD1Ev
000000000008965e T _ZN16TZolixWavelengthD2Ev
000000000008c400 W _ZN17ISpectrographIrisC1Ev
000000000008c400 W _ZN17ISpectrographIrisC2Ev
000000000008c3da W _ZN17ISpectrographIrisD0Ev
000000000008c398 W _ZN17ISpectrographIrisD1Ev
000000000008c398 W _ZN17ISpectrographIrisD2Ev
0000000000085970 W _ZN17ISpectrographSlitC1Ev
0000000000085970 W _ZN17ISpectrographSlitC2Ev
000000000008594a W _ZN17ISpectrographSlitD0Ev
0000000000085908 W _ZN17ISpectrographSlitD1Ev
0000000000085908 W _ZN17ISpectrographSlitD2Ev
000000000007d3a4 T _ZN17TAndorZolixEeprom11GetIDStringEv
000000000007d8b4 T _ZN17TAndorZolixEeprom11GetSinPhaseEv
000000000007d3c2 T _ZN17TAndorZolixEeprom11SetIDStringEPKc
000000000007d93a T _ZN17TAndorZolixEeprom11SetSinPhaseEf
000000000007d71c T _ZN17TAndorZolixEeprom12GetPlaneTiltEv
000000000007d736 T _ZN17TAndorZolixEeprom12SetPlaneTiltEf
000000000007d6b0 T _ZN17TAndorZolixEeprom13GetAngularDevEv
000000000007d6ca T _ZN17TAndorZolixEeprom13SetAngularDevEf
000000000007d644 T _ZN17TAndorZolixEeprom14GetFocalLengthEv
000000000007e156 T _ZN17TAndorZolixEeprom14GetNoOfTurretsEv
000000000007d65e T _ZN17TAndorZolixEeprom14SetFocalLengthEf
000000000007e16a T _ZN17TAndorZolixEeprom14SetNoOfTurretsEi
000000000007e0a6 T _ZN17TAndorZolixEeprom15GetActiveTurretEv
000000000007df86 T _ZN17TAndorZolixEeprom15GetFilterStringEi
000000000007de6a T _ZN17TAndorZolixEeprom15GetGratingBlazeEii
000000000007dd80 T _ZN17TAndorZolixEeprom15GetGratingLinesEii
000000000007da92 T _ZN17TAndorZolixEeprom15GetGratingStartEii
000000000007d626 T _ZN17TAndorZolixEeprom15GetModifiedDateEv
000000000007d7ca T _ZN17TAndorZolixEeprom15GetNoOfGratingsEi
000000000007d552 T _ZN17TAndorZolixEeprom15GetSerialNumberEv
000000000007d89a T _ZN17TAndorZolixEeprom15GetSinAmplitudeEv
000000000007d920 T _ZN17TAndorZolixEeprom15GetSinFrequencyEv
000000000007e0ba T _ZN17TAndorZolixEeprom15SetActiveTurretEi
000000000007dff8 T _ZN17TAndorZolixEeprom15SetFilterStringEiPKc
000000000007ded4 T _ZN17TAndorZolixEeprom15SetGratingBlazeEiiSs
000000000007ddde T _ZN17TAndorZolixEeprom15SetGratingLinesEiif
000000000007dae8 T _ZN17TAndorZolixEeprom15SetGratingStartEiii
000000000007d83e T _ZN17TAndorZolixEeprom15SetNoOfGratingsEii
000000000007d570 T _ZN17TAndorZolixEeprom15SetSerialNumberESs
000000000007d8ce T _ZN17TAndorZolixEeprom15SetSinAmplitudeEf
000000000007d98c T _ZN17TAndorZolixEeprom15SetSinFrequencyEf
000000000007e1f2 T _ZN17TAndorZolixEeprom16GetGratingOffsetEii
000000000007e248 T _ZN17TAndorZolixEeprom16SetGratingOffsetEiii
000000000007db6a T _ZN17TAndorZolixEeprom17GetDetectorOffsetEii
000000000007dc1e T _ZN17TAndorZolixEeprom17SetDetectorOffsetEiii
000000000007e390 T _ZN17TAndorZolixEeprom18BinaryFloatCompareEff
000000000007d5bc T _ZN17TAndorZolixEeprom18GetManufactureDateEv
000000000007d5da T _ZN17TAndorZolixEeprom18SetManufactureDateESs
000000000007d2b8 T _ZN17TAndorZolixEeprom18UpdateModifiedTimeEv
000000000007d212 T _ZN17TAndorZolixEeprom19GetStructureVersionEPiS0_
000000000007d4e8 T _ZN17TAndorZolixEeprom19GetStructureVersionEv
000000000007d9de T _ZN17TAndorZolixEeprom19GetWaveToStepsCoeffEi
000000000007d506 T _ZN17TAndorZolixEeprom19SetStructureVersionESs
000000000007da1a T _ZN17TAndorZolixEeprom19SetWaveToStepsCoeffEif
000000000007e2e2 T _ZN17TAndorZolixEeprom20IsValidTurretGratingEii
000000000007e3c0 T _ZN17TAndorZolixEeprom25GetEepromStructureVersionESsPiS0_
000000000007d788 T _ZN17TAndorZolixEeprom7GetGafaEv
000000000007d79a T _ZN17TAndorZolixEeprom7SetGafaEb
000000000007cfc2 T _ZN17TAndorZolixEepromC1EP16TZolixOmniLambda
000000000007cfc2 T _ZN17TAndorZolixEepromC2EP16TZolixOmniLambda
000000000007e5dc W _ZN17TAndorZolixEepromD0Ev
000000000007e4e2 W _ZN17TAndorZolixEepromD1Ev
000000000007e4e2 W _ZN17TAndorZolixEepromD2Ev
0000000000084e32 W _ZN17TBusyDeviceServer6IsBusyEv
0000000000084e44 W _ZN17TBusyDeviceServer7SetBusyEb
0000000000084dfe W _ZN17TBusyDeviceServerC1Ev
0000000000084dfe W _ZN17TBusyDeviceServerC2Ev
0000000000084ebc W _ZN17TBusyDeviceServerD0Ev
0000000000084e7a W _ZN17TBusyDeviceServerD1Ev
0000000000084e7a W _ZN17TBusyDeviceServerD2Ev
000000000005ad2e T _ZN17TSpectrographList14GetCalibrationEi
000000000005acca T _ZN17TSpectrographList16GetNumberDevicesEv
000000000005ad80 T _ZN17TSpectrographList18GetRawSpectrographEi
000000000005ae30 W _ZN17TSpectrographList21TSpectrographListItemC1Ev
000000000005ae30 W _ZN17TSpectrographList21TSpectrographListItemC2Ev
000000000005acdc T _ZN17TSpectrographList9GetDeviceEi
000000000005a51a T _ZN17TSpectrographListC1EPc
000000000005a51a T _ZN17TSpectrographListC2EPc
000000000005aaca T _ZN17TSpectrographListD1Ev
000000000005aaca T _ZN17TSpectrographListD2Ev
0000000000098d50 W _ZN18TDetectorInterface13GetPixelWidthERf
0000000000098d64 W _ZN18TDetectorInterface14GetPixelHeightERf
0000000000098d78 W _ZN18TDetectorInterface17GetNumberOfPixelsERi
0000000000098d8c W _ZN18TDetectorInterfaceC1Ev
0000000000098d8c W _ZN18TDetectorInterfaceC2Ev
0000000000089504 W _ZN19ISpectrographEEPROMC1Ev
0000000000089504 W _ZN19ISpectrographEEPROMC2Ev
00000000000894de W _ZN19ISpectrographEEPROMD0Ev
000000000008949c W _ZN19ISpectrographEEPROMD1Ev
000000000008949c W _ZN19ISpectrographEEPROMD2Ev
0000000000084f4a W _ZN19ISpectrographFilterC1Ev
0000000000084f4a W _ZN19ISpectrographFilterC2Ev
0000000000084f24 W _ZN19ISpectrographFilterD0Ev
0000000000084ee2 W _ZN19ISpectrographFilterD1Ev
0000000000084ee2 W _ZN19ISpectrographFilterD2Ev
000000000008a766 W _ZN19TSpectrographDeviceC1Ev
000000000008a766 W _ZN19TSpectrographDeviceC2Ev
000000000008a7d4 W _ZN19TSpectrographDeviceD0Ev
000000000008a792 W _ZN19TSpectrographDeviceD1Ev
000000000008a792 W _ZN19TSpectrographDeviceD2Ev
00000000000978c8 T _ZN19TStepperWaveToSteps7ToStepsEfii
000000000009783c T _ZN19TStepperWaveToStepsC1EPffffm
000000000009783c T _ZN19TStepperWaveToStepsC2EPffffm
00000000000978be T _ZN19TStepperWaveToStepsD1Ev
00000000000978be T _ZN19TStepperWaveToStepsD2Ev
000000000007a8ee T _ZN19TZolixOmniLambdaCom11IsAvailableEv
0000000000079101 W _ZN19TZolixOmniLambdaCom13GetIPCControlEv
000000000007a73a T _ZN19TZolixOmniLambdaCom14GetDeviceCountERi
00000000002dd0c0 B _ZN19TZolixOmniLambdaCom17s_zolixControlIPCE
000000000007aaac T _ZN19TZolixOmniLambdaCom18AddParamsToCommandESsSs
000000000007a6fe T _ZN19TZolixOmniLambdaCom19RestoreLongTimeoutsEv
000000000007b814 T _ZN19TZolixOmniLambdaCom3LOGEPKc
000000000007b6ce T _ZN19TZolixOmniLambdaCom3LOGEPKcS1_
000000000007b764 T _ZN19TZolixOmniLambdaCom3LOGEPKci
000000000007a2d0 T _ZN19TZolixOmniLambdaCom4OpenEib
000000000007ae12 T _ZN19TZolixOmniLambdaCom5BasicEPKcPc
000000000007a61c T _ZN19TZolixOmniLambdaCom5CloseEv
000000000007b1c0 T _ZN19TZolixOmniLambdaCom5QueryESsSsRSs
000000000007a9e0 T _ZN19TZolixOmniLambdaCom7CommandESs
000000000007ab4e T _ZN19TZolixOmniLambdaCom7CommandESsSs
000000000007b0f4 T _ZN19TZolixOmniLambdaCom7ToUpperESs
000000000007a0c8 T _ZN19TZolixOmniLambdaComC1EP13TI2CInterface
000000000007a0c8 T _ZN19TZolixOmniLambdaComC2EP13TI2CInterface
000000000007a2aa T _ZN19TZolixOmniLambdaComD0Ev
000000000007a24c T _ZN19TZolixOmniLambdaComD1Ev
000000000007a24c T _ZN19TZolixOmniLambdaComD2Ev
00000000000863ca W _ZN20ISpectrographFlipperC1Ev
00000000000863ca W _ZN20ISpectrographFlipperC2Ev
00000000000863a4 W _ZN20ISpectrographFlipperD0Ev
0000000000086362 W _ZN20ISpectrographFlipperD1Ev
0000000000086362 W _ZN20ISpectrographFlipperD2Ev
0000000000087d4a W _ZN20ISpectrographGratingC1Ev
0000000000087d4a W _ZN20ISpectrographGratingC2Ev
0000000000087d24 W _ZN20ISpectrographGratingD0Ev
0000000000087ce2 W _ZN20ISpectrographGratingD1Ev
0000000000087ce2 W _ZN20ISpectrographGratingD2Ev
000000000008a212 W _ZN20ISpectrographShutterC1Ev
000000000008a212 W _ZN20ISpectrographShutterC2Ev
000000000008a1ec W _ZN20ISpectrographShutterD0Ev
000000000008a1aa W _ZN20ISpectrographShutterD1Ev
000000000008a1aa W _ZN20ISpectrographShutterD2Ev
000000000005a000 T _ZN21TCalibrationAlgorithm10TConstants8ValueForEi
00000000000b7194 R _ZN21TCalibrationAlgorithm11mcfMaxFloatE
00000000000b7190 R _ZN21TCalibrationAlgorithm11mcfMinFloatE
00000000000594aa T _ZN21TCalibrationAlgorithm12GetConstantsERNS_10TConstantsEfN21TWavelengthConversion9eWaveTypeENS2_9eWaveUnitEfififffdb
00000000000b7198 R _ZN21TCalibrationAlgorithm12mciMaxPointsE
0000000000059d94 T _ZN21TCalibrationAlgorithm15TestCalibrationENS_10TConstantsEi
00000000000b719c R _ZN21TCalibrationAlgorithm17maxFocalPlaneTiltE
0000000000059bd8 T _ZN21TCalibrationAlgorithm18ValidateParametersEfN21TWavelengthConversion9eWaveTypeENS0_9eWaveUnitEfififffdb
0000000000098c10 T _ZN21TSDKDetectorInterface13GetPixelWidthERf
0000000000098c5c T _ZN21TSDKDetectorInterface14GetPixelHeightERf
0000000000098ca8 T _ZN21TSDKDetectorInterface17GetNumberOfPixelsERi
0000000000098bc4 T _ZN21TSDKDetectorInterfaceC1EPFjPiS0_EPFjPfS3_E
0000000000098bc4 T _ZN21TSDKDetectorInterfaceC2EPFjPiS0_EPFjPfS3_E
000000000005a44e T _ZN21TSpectrographHardware15GetSerialNumberEPci
000000000005a4fa T _ZN21TSpectrographHardware16GetIrisInterfaceEN17ISpectrographIris9TPositionE
000000000005a4ba T _ZN21TSpectrographHardware16GetSlitInterfaceEN17ISpectrographSlit13TSlitPositionE
0000000000056ece W _ZN21TSpectrographHardware18GetEepromInterfaceEv
0000000000056ee0 W _ZN21TSpectrographHardware18GetFilterInterfaceEv
000000000005a4da T _ZN21TSpectrographHardware19GetFlipperInterfaceEN20ISpectrographFlipper16TFlipperPositionE
0000000000056f04 W _ZN21TSpectrographHardware19GetGratingInterfaceEv
0000000000056f16 W _ZN21TSpectrographHardware19GetShutterInterfaceEv
0000000000056ebc W _ZN21TSpectrographHardware21GetAccessoryInterfaceEv
0000000000056eaa W _ZN21TSpectrographHardware22GetWavelengthInterfaceEv
0000000000056ef2 W _ZN21TSpectrographHardware23GetFocusMirrorInterfaceEv
000000000005a082 T _ZN21TSpectrographHardwareC1Ei
000000000005a082 T _ZN21TSpectrographHardwareC2Ei
000000000005a428 T _ZN21TSpectrographHardwareD0Ev
000000000005a19a T _ZN21TSpectrographHardwareD1Ev
000000000005a19a T _ZN21TSpectrographHardwareD2Ev
00000000000b7274 R _ZN21TWavelengthConversion25CentimeterConvertConstantE
00000000000b7270 R _ZN21TWavelengthConversion25MicrometerConvertConstantE
00000000000b7278 R _ZN21TWavelengthConversion28ElectronVoltsConvertConstantE
000000000005beac T _ZN21TWavelengthConversion4ToNmEfNS_9eWaveTypeENS_9eWaveUnitEf
000000000005bfdc T _ZN21TWavelengthConversion6FromNmEfNS_9eWaveTypeENS_9eWaveUnitEf
0000000000079d2c T _ZN21TZolixOmniLambdaCache11EnableCacheENS_13eCachedValuesEbj
0000000000079e64 T _ZN21TZolixOmniLambdaCache13GetCacheValueENS_13eCachedValuesE
0000000000079dd6 T _ZN21TZolixOmniLambdaCache13SetCacheValueENS_13eCachedValuesESs
000000000007a036 W _ZN21TZolixOmniLambdaCache5CACHEC1Ev
000000000007a036 W _ZN21TZolixOmniLambdaCache5CACHEC2Ev
000000000007910e W _ZN21TZolixOmniLambdaCache5CACHED1Ev
000000000007910e W _ZN21TZolixOmniLambdaCache5CACHED2Ev
0000000000079bca T _ZN21TZolixOmniLambdaCacheC1Ev
0000000000079bca T _ZN21TZolixOmniLambdaCacheC2Ev
000000000007912c W _ZN21TZolixOmniLambdaCacheD1Ev
000000000007912c W _ZN21TZolixOmniLambdaCacheD2Ev
0000000000088ec8 W _ZN22ISpectrographAccessoryC1Ev
0000000000088ec8 W _ZN22ISpectrographAccessoryC2Ev
0000000000088ea2 W _ZN22ISpectrographAccessoryD0Ev
0000000000088e60 W _ZN22ISpectrographAccessoryD1Ev
0000000000088e60 W _ZN22ISpectrographAccessoryD2Ev
0000000000082570 T _ZN22TAndorZolixVerneEeprom11SplitStringESsc
0000000000082e58 W _ZN22TAndorZolixVerneEeprom12GetNoFiltersEv
0000000000082398 T _ZN22TAndorZolixVerneEeprom12WriteIfDirtyEv
000000000008229c T _ZN22TAndorZolixVerneEeprom12WriteOffsetsEv
0000000000082eb8 W _ZN22TAndorZolixVerneEeprom14GetMaxNoInputsEv
00000000000b8150 R _ZN22TAndorZolixVerneEeprom14kDetectorIndexE
0000000000082ea8 W _ZN22TAndorZolixVerneEeprom15GetMaxNoOutputsEv
0000000000082e98 W _ZN22TAndorZolixVerneEeprom15GetMaxNoTurretsEv
0000000000082e88 W _ZN22TAndorZolixVerneEeprom15GetMinNoTurretsEv
00000000000824c4 T _ZN22TAndorZolixVerneEeprom15IsGAFAAvailableEv
0000000000082e78 W _ZN22TAndorZolixVerneEeprom16GetMaxNoGratingsEv
0000000000082e68 W _ZN22TAndorZolixVerneEeprom16GetMinNoGratingsEv
0000000000082540 T _ZN22TAndorZolixVerneEeprom17StoreActiveTurretEv
00000000000824f4 T _ZN22TAndorZolixVerneEeprom20GetCurrentWavelengthEv
00000000000824d4 T _ZN22TAndorZolixVerneEeprom20GetWaveToStepsEnableEv
0000000000082530 T _ZN22TAndorZolixVerneEeprom20SetCurrentWavelengthEf
00000000000824e4 T _ZN22TAndorZolixVerneEeprom20SetWaveToStepsEnableEh
0000000000082e4a W _ZN22TAndorZolixVerneEeprom24GetAdjustedDetectorIndexEPi
00000000000823d0 T _ZN22TAndorZolixVerneEeprom26WriteOpticalParamsToEEPROMEfff
00000000000826d0 T _ZN22TAndorZolixVerneEeprom27GetActiveTurretGratingBlazeEi
000000000008275c T _ZN22TAndorZolixVerneEeprom27GetActiveTurretGratingLinesEi
000000000008279c T _ZN22TAndorZolixVerneEeprom27GetActiveTurretGratingStartEi
0000000000082690 T _ZN22TAndorZolixVerneEeprom27GetActiveTurretNoOfGratingsEv
0000000000082482 T _ZN22TAndorZolixVerneEeprom27ReadOpticalParamsFromEEPROMEPfS0_S0_
0000000000082810 T _ZN22TAndorZolixVerneEeprom28GetActiveTurretGratingOffsetEi
0000000000082884 T _ZN22TAndorZolixVerneEeprom28SetActiveTurretGratingOffsetEii
0000000000082afa T _ZN22TAndorZolixVerneEeprom34GetGratingBlazeFromGratingsCommandEi
00000000000828f8 T _ZN22TAndorZolixVerneEeprom34GetGratingLinesFromGratingsCommandEi
00000000000816c0 T _ZN22TAndorZolixVerneEeprom4ReadEv
0000000000081bd6 T _ZN22TAndorZolixVerneEeprom5WriteEv
0000000000082ff0 W _ZN22TAndorZolixVerneEeprom8GetValueIbEEiNS_8eParamIDERT_
0000000000082ec8 W _ZN22TAndorZolixVerneEeprom8GetValueIfEEiNS_8eParamIDERT_
0000000000083118 W _ZN22TAndorZolixVerneEeprom8GetValueIiEEiNS_8eParamIDERT_
0000000000083240 W _ZN22TAndorZolixVerneEeprom8SetValueIfEEiNS_8eParamIDET_
0000000000083370 W _ZN22TAndorZolixVerneEeprom8SetValueIiEEiNS_8eParamIDET_
0000000000081618 T _ZN22TAndorZolixVerneEeprom9GetStringENS_8eParamIDERSs
000000000008164a T _ZN22TAndorZolixVerneEeprom9SetStringENS_8eParamIDESs
00000000000814f8 T _ZN22TAndorZolixVerneEepromC1EP16TZolixOmniLambda
00000000000814f8 T _ZN22TAndorZolixVerneEepromC2EP16TZolixOmniLambda
00000000000815f2 T _ZN22TAndorZolixVerneEepromD0Ev
0000000000081592 T _ZN22TAndorZolixVerneEepromD1Ev
0000000000081592 T _ZN22TAndorZolixVerneEepromD2Ev
000000000009c466 T _ZN22TSpectrographDetection6DetectEP13TI2CInterface
0000000000056f28 W _ZN22TSpectrographExceptionC1Ei
0000000000056f28 W _ZN22TSpectrographExceptionC2Ei
000000000008c1ea T _ZN22TSpectrographZolixIris3GetEv
000000000008c122 T _ZN22TSpectrographZolixIris3SetEi
000000000008c27a T _ZN22TSpectrographZolixIris5ResetEv
000000000008bfee T _ZN22TSpectrographZolixIris9IsPresentEv
000000000008bed4 T _ZN22TSpectrographZolixIrisC1EP16TZolixOmniLambdaN17ISpectrographIris9TPositionE
000000000008bed4 T _ZN22TSpectrographZolixIrisC2EP16TZolixOmniLambdaN17ISpectrographIris9TPositionE
000000000008bfc8 T _ZN22TSpectrographZolixIrisD0Ev
000000000008bf76 T _ZN22TSpectrographZolixIrisD1Ev
000000000008bf76 T _ZN22TSpectrographZolixIrisD2Ev
0000000000085130 T _ZN22TSpectrographZolixSlit11GetSlitModeEv
0000000000085854 T _ZN22TSpectrographZolixSlit11GetSlitNameEN17ISpectrographSlit13TSlitPositionE
0000000000085374 T _ZN22TSpectrographZolixSlit11GetSlitStepEv
0000000000085090 T _ZN22TSpectrographZolixSlit11SetSlitModeEPKc
00000000000855d0 T _ZN22TSpectrographZolixSlit11UnsafeResetEv
000000000008545a T _ZN22TSpectrographZolixSlit15GetZeroPositionEv
0000000000085384 T _ZN22TSpectrographZolixSlit15SetZeroPositionEi
00000000000856a6 T _ZN22TSpectrographZolixSlit17isSlitIDFixNeededEv
0000000000085500 T _ZN22TSpectrographZolixSlit5ResetEv
00000000000852ba T _ZN22TSpectrographZolixSlit7GetSlitEv
00000000000851da T _ZN22TSpectrographZolixSlit7SetSlitEf
00000000000857a2 T _ZN22TSpectrographZolixSlit9GetSlitIDEN17ISpectrographSlit13TSlitPositionE
0000000000085616 T _ZN22TSpectrographZolixSlit9IsPresentEv
0000000000084f76 T _ZN22TSpectrographZolixSlitC1EP16TZolixOmniLambdaN17ISpectrographSlit13TSlitPositionE
0000000000084f76 T _ZN22TSpectrographZolixSlitC2EP16TZolixOmniLambdaN17ISpectrographSlit13TSlitPositionE
000000000008506a T _ZN22TSpectrographZolixSlitD0Ev
0000000000085018 T _ZN22TSpectrographZolixSlitD1Ev
0000000000085018 T _ZN22TSpectrographZolixSlitD2Ev
0000000000089d1e W _ZN23ISpectrographWavelength10CheckErrorEv
0000000000089d32 W _ZN23ISpectrographWavelengthC1Ev
0000000000089d32 W _ZN23ISpectrographWavelengthC2Ev
0000000000089cf8 W _ZN23ISpectrographWavelengthD0Ev
0000000000089cb6 W _ZN23ISpectrographWavelengthD1Ev
0000000000089cb6 W _ZN23ISpectrographWavelengthD2Ev
000000000008cb74 T _ZN23TMCDI2CInterfaceWrapper10BurstWriteEhlPKh
000000000008caa6 T _ZN23TMCDI2CInterfaceWrapper12SetInterfaceEP13TI2CInterface
000000000008cc28 T _ZN23TMCDI2CInterfaceWrapper17EnableExternalBusEj
000000000008cb1a T _ZN23TMCDI2CInterfaceWrapper4ReadEhhPh
000000000008cac0 T _ZN23TMCDI2CInterfaceWrapper5WriteEhhh
000000000008cbce T _ZN23TMCDI2CInterfaceWrapper9BurstReadEhlPh
000000000008ca6a T _ZN23TMCDI2CInterfaceWrapperC1EP13TI2CInterface
000000000008ca6a T _ZN23TMCDI2CInterfaceWrapperC2EP13TI2CInterface
000000000008cd52 W _ZN23TMCDI2CInterfaceWrapperD0Ev
000000000008cd10 W _ZN23TMCDI2CInterfaceWrapperD1Ev
000000000008cd10 W _ZN23TMCDI2CInterfaceWrapperD2Ev
000000000008dd14 T _ZN23TSPECAcquisitionAborter14AbortIfRunningEv
000000000008dd1e T _ZN23TSPECAcquisitionAborter16RestartIfAbortedEv
000000000008dd04 T _ZN23TSPECAcquisitionAborterC1Eb
000000000008dd04 T _ZN23TSPECAcquisitionAborterC2Eb
000000000008d6bc T _ZN23TSpectrographI2CControl11IsDeviceSDKEi
000000000008d668 T _ZN23TSpectrographI2CControl11IsDeviceUSBEi
000000000008d5a4 T _ZN23TSpectrographI2CControl15GetI2CInterfaceEi
000000000008d592 T _ZN23TSpectrographI2CControl16GetNumberDevicesEv
000000000008d574 T _ZN23TSpectrographI2CControl18GetSDKI2CInterfaceEv
000000000008d606 T _ZN23TSpectrographI2CControl20GetDetectorInterfaceEi
000000000008d27e T _ZN23TSpectrographI2CControlC1EPc
000000000008d27e T _ZN23TSpectrographI2CControlC2EPc
000000000008d54e T _ZN23TSpectrographI2CControlD0Ev
000000000008d4a0 T _ZN23TSpectrographI2CControlD1Ev
000000000008d4a0 T _ZN23TSpectrographI2CControlD2Ev
0000000000088aee W _ZN24ISpectrographFocusMirrorC1Ev
0000000000088aee W _ZN24ISpectrographFocusMirrorC2Ev
0000000000088ab4 W _ZN24ISpectrographFocusMirrorD0Ev
0000000000088a72 W _ZN24ISpectrographFocusMirrorD1Ev
0000000000088a72 W _ZN24ISpectrographFocusMirrorD2Ev
0000000000089210 T _ZN24TSpectrographZolixEeprom14GetGratingInfoEiRfRPKc
00000000000890c6 T _ZN24TSpectrographZolixEeprom16GetGratingInfoExEiRfRPKcS0_S0_
00000000000893a4 T _ZN24TSpectrographZolixEeprom16GetOpticalParamsERfS0_S0_
0000000000089310 T _ZN24TSpectrographZolixEeprom16SetOpticalParamsEfff
000000000008907c T _ZN24TSpectrographZolixEeprom17GetNumberGratingsEv
0000000000088ef4 T _ZN24TSpectrographZolixEepromC1EP16TZolixOmniLambda
0000000000088ef4 T _ZN24TSpectrographZolixEepromC2EP16TZolixOmniLambda
0000000000089056 T _ZN24TSpectrographZolixEepromD0Ev
0000000000088fbc T _ZN24TSpectrographZolixEepromD1Ev
0000000000088fbc T _ZN24TSpectrographZolixEepromD2Ev
0000000000084ab4 T _ZN24TSpectrographZolixFilter13GetFilterInfoEiPci
0000000000084b96 T _ZN24TSpectrographZolixFilter13SetFilterInfoEiPKc
00000000000849da T _ZN24TSpectrographZolixFilter5ResetEv
0000000000084922 T _ZN24TSpectrographZolixFilter9GetFilterEv
0000000000084c7e T _ZN24TSpectrographZolixFilter9IsPresentEv
000000000008483e T _ZN24TSpectrographZolixFilter9SetFilterEi
0000000000084732 T _ZN24TSpectrographZolixFilterC1EP16TZolixOmniLambda
0000000000084732 T _ZN24TSpectrographZolixFilterC2EP16TZolixOmniLambda
0000000000084818 T _ZN24TSpectrographZolixFilterD0Ev
00000000000847c6 T _ZN24TSpectrographZolixFilterD1Ev
00000000000847c6 T _ZN24TSpectrographZolixFilterD2Ev
0000000000084704 W _ZN24TZolixSpectrographDevice13GetStepTurretEv
000000000008a574 T _ZN24TZolixSpectrographDevice14GetModelNumberERPKc
000000000008a662 T _ZN24TZolixSpectrographDevice18GetFullModelNumberERPKc
00000000000846f2 W _ZN24TZolixSpectrographDevice18GetZolixOmniLambdaEv
000000000008a6c4 T _ZN24TZolixSpectrographDevice21GetSpectrographSerialERPKc
000000000008a50c T _ZN24TZolixSpectrographDevice4LoadEb
000000000008a4fa T _ZN24TZolixSpectrographDevice8IsActiveEv
000000000008a3e0 T _ZN24TZolixSpectrographDevice9IsPresentEv
000000000008a41c T _ZN24TZolixSpectrographDevice9SetActiveEb
000000000008a23e T _ZN24TZolixSpectrographDeviceC1EP16TZolixOmniLambda
000000000008a23e T _ZN24TZolixSpectrographDeviceC2EP16TZolixOmniLambda
000000000008a3ba T _ZN24TZolixSpectrographDeviceD0Ev
000000000008a302 T _ZN24TZolixSpectrographDeviceD1Ev
000000000008a302 T _ZN24TZolixSpectrographDeviceD2Ev
000000000008d154 T _ZN25TSpectrograph303iHardware10InitialiseEv
000000000008cd78 T _ZN25TSpectrograph303iHardwareC1EP12Spectrograph
000000000008cd78 T _ZN25TSpectrograph303iHardwareC2EP12Spectrograph
000000000008d12e T _ZN25TSpectrograph303iHardwareD0Ev
000000000008d0ec T _ZN25TSpectrograph303iHardwareD1Ev
000000000008d0ec T _ZN25TSpectrograph303iHardwareD2Ev
0000000000085d6a T _ZN25TSpectrographZolixFlipper11GetMaxStepsEv
000000000008617c T _ZN25TSpectrographZolixFlipper12GetCCDLimitsEN20ISpectrographFlipper13TPortPositionERfS2_
0000000000085ada T _ZN25TSpectrographZolixFlipper14SetFlipperPortEN20ISpectrographFlipper13TPortPositionE
0000000000085ab6 T _ZN25TSpectrographZolixFlipper23PortPositionToZolixPortEN20ISpectrographFlipper13TPortPositionE
00000000000860fa T _ZN25TSpectrographZolixFlipper5ResetEv
0000000000085c4c T _ZN25TSpectrographZolixFlipper7GetPortEv
0000000000085fae T _ZN25TSpectrographZolixFlipper8GetMotorEPi
0000000000085e74 T _ZN25TSpectrographZolixFlipper8SetMotorEi
000000000008626c T _ZN25TSpectrographZolixFlipper9IsPresentEv
000000000008599c T _ZN25TSpectrographZolixFlipperC1EP16TZolixOmniLambdaP28TSpectrographZolixStepTurretN20ISpectrographFlipper16TFlipperPositionE
000000000008599c T _ZN25TSpectrographZolixFlipperC2EP16TZolixOmniLambdaP28TSpectrographZolixStepTurretN20ISpectrographFlipper16TFlipperPositionE
0000000000085a90 T _ZN25TSpectrographZolixFlipperD0Ev
0000000000085a4e T _ZN25TSpectrographZolixFlipperD1Ev
0000000000085a4e T _ZN25TSpectrographZolixFlipperD2Ev
00000000000872a6 T _ZN25TSpectrographZolixGrating10GetGratingEv
00000000000871b0 T _ZN25TSpectrographZolixGrating10SetGratingEi
000000000008745c T _ZN25TSpectrographZolixGrating11UnsafeResetEv
000000000008708c T _ZN25TSpectrographZolixGrating14GetGratingInfoEiRfRPKcS0_S0_
00000000000877ee T _ZN25TSpectrographZolixGrating16GetGratingOffsetEi
00000000000876f6 T _ZN25TSpectrographZolixGrating16SetGratingOffsetEii
000000000008757a T _ZN25TSpectrographZolixGrating17GetDetectorOffsetEii
0000000000087696 T _ZN25TSpectrographZolixGrating17GetDetectorOffsetEv
0000000000087068 T _ZN25TSpectrographZolixGrating17GetNumberGratingsEv
000000000008763a T _ZN25TSpectrographZolixGrating17SetDetectorOffsetEi
0000000000087482 T _ZN25TSpectrographZolixGrating17SetDetectorOffsetEiii
0000000000087c0a T _ZN25TSpectrographZolixGrating19GetWavelengthLimitsEiRfS0_
0000000000087a90 T _ZN25TSpectrographZolixGrating19NeedsTurretSafeMoveEv
00000000000878ae T _ZN25TSpectrographZolixGrating23GratingOffsetAutoAdjustEv
0000000000087abc T _ZN25TSpectrographZolixGrating24MoveTurretToSafePositionEv
0000000000087996 T _ZN25TSpectrographZolixGrating29GratingOffsetCancelAutoAdjustEv
000000000008736a T _ZN25TSpectrographZolixGrating5ResetEv
0000000000087b74 T _ZN25TSpectrographZolixGrating8ReadRFIDEv
0000000000087a6c T _ZN25TSpectrographZolixGrating9GetTurretEv
0000000000087a46 T _ZN25TSpectrographZolixGrating9SetTurretEi
0000000000086e96 T _ZN25TSpectrographZolixGratingC1EP24TZolixSpectrographDevice
0000000000086e96 T _ZN25TSpectrographZolixGratingC2EP24TZolixSpectrographDevice
0000000000087042 T _ZN25TSpectrographZolixGratingD0Ev
0000000000086f8e T _ZN25TSpectrographZolixGratingD1Ev
0000000000086f8e T _ZN25TSpectrographZolixGratingD2Ev
0000000000084716 W _ZN26ISpectrographDeviceFactoryC1Ev
0000000000084716 W _ZN26ISpectrographDeviceFactoryC2Ev
00000000000846cc W _ZN26ISpectrographDeviceFactoryD0Ev
0000000000084696 W _ZN26ISpectrographDeviceFactoryD1Ev
0000000000084696 W _ZN26ISpectrographDeviceFactoryD2Ev
0000000000079b36 W _ZN26TAndorOnly_ZolixOmniLambda10Is193or328Eii
0000000000079afc W _ZN26TAndorOnly_ZolixOmniLambda10Is750or500Eii
00000000002dd020 D _ZN26TAndorOnly_ZolixOmniLambda12ANDOR_STRINGE
0000000000079828 T _ZN26TAndorOnly_ZolixOmniLambda13IsAndorCameraER16TZolixOmniLambda
000000000007928a T _ZN26TAndorOnly_ZolixOmniLambda14GetDeviceCountERi
000000000007927a T _ZN26TAndorOnly_ZolixOmniLambda21getPointerToFunctionsEv
0000000000079570 T _ZN26TAndorOnly_ZolixOmniLambda4OpenEi
00000000000799a4 T _ZN26TAndorOnly_ZolixOmniLambda7ToUpperESs
0000000000079168 T _ZN26TAndorOnly_ZolixOmniLambdaC1EP13TI2CInterface
0000000000079168 T _ZN26TAndorOnly_ZolixOmniLambdaC2EP13TI2CInterface
0000000000079254 T _ZN26TAndorOnly_ZolixOmniLambdaD0Ev
0000000000079212 T _ZN26TAndorOnly_ZolixOmniLambdaD1Ev
0000000000079212 T _ZN26TAndorOnly_ZolixOmniLambdaD2Ev
000000000008b7fa W _ZN26TZSpectrographWaveStrategyC1Ev
000000000008b7fa W _ZN26TZSpectrographWaveStrategyC2Ev
0000000000088c26 T _ZN27TSpectrographZolixAccessory12SetAccessoryEib
0000000000088d3c T _ZN27TSpectrographZolixAccessory17GetAccessoryStateEi
0000000000088dec T _ZN27TSpectrographZolixAccessory9IsPresentEv
0000000000088b1a T _ZN27TSpectrographZolixAccessoryC1EP16TZolixOmniLambda
0000000000088b1a T _ZN27TSpectrographZolixAccessoryC2EP16TZolixOmniLambda
0000000000088c00 T _ZN27TSpectrographZolixAccessoryD0Ev
0000000000088bae T _ZN27TSpectrographZolixAccessoryD1Ev
0000000000088bae T _ZN27TSpectrographZolixAccessoryD2Ev
000000000008b214 T _ZN28TSpectrographZolixStepTurret10GetGratingERi
000000000008ad8c T _ZN28TSpectrographZolixStepTurret10SetGratingEiN29TZSpectrographGratingStrategy17eWavelengthOptionE
000000000008ad56 T _ZN28TSpectrographZolixStepTurret13GetWavelengthERf
000000000008a900 T _ZN28TSpectrographZolixStepTurret13SetWavelengthEf
000000000008b2fa T _ZN28TSpectrographZolixStepTurret16GetGratingOffsetEiRi
000000000008b244 T _ZN28TSpectrographZolixStepTurret16SetGratingOffsetEii
000000000008b496 T _ZN28TSpectrographZolixStepTurret17GetDetectorOffsetEiiRi
000000000008b3fc T _ZN28TSpectrographZolixStepTurret17SetDetectorOffsetEiii
000000000008b4d8 T _ZN28TSpectrographZolixStepTurret18SetCurrentExitPortEi
000000000008b508 T _ZN28TSpectrographZolixStepTurret22SetCurrentEntrancePortEi
000000000008b538 T _ZN28TSpectrographZolixStepTurret22andorStepsToZolixStepsEi
000000000008b5a2 T _ZN28TSpectrographZolixStepTurret22zolixStepsToAndorStepsEm
000000000008b338 T _ZN28TSpectrographZolixStepTurret23GratingOffsetAutoAdjustEv
000000000008b39a T _ZN28TSpectrographZolixStepTurret29GratingOffsetCancelAutoAdjustEv
000000000008b68a T _ZN28TSpectrographZolixStepTurret9StepShiftEi
000000000008a7fa T _ZN28TSpectrographZolixStepTurretC1EP16TZolixOmniLambda
000000000008a7fa T _ZN28TSpectrographZolixStepTurretC2EP16TZolixOmniLambda
000000000008a8d4 T _ZN28TSpectrographZolixStepTurretD0Ev
000000000008a872 T _ZN28TSpectrographZolixStepTurretD1Ev
000000000008a872 T _ZN28TSpectrographZolixStepTurretD2Ev
00000000000805aa T _ZN29TAndorZolixSpectrographEeprom10ReadStringEiPci
000000000008120e T _ZN29TAndorZolixSpectrographEeprom10WriteFloatEif
0000000000081124 T _ZN29TAndorZolixSpectrographEeprom10WriteInt32Eii
0000000000080624 T _ZN29TAndorZolixSpectrographEeprom11WriteStringEiPci
000000000008092e T _ZN29TAndorZolixSpectrographEeprom12GetBlazeSizeEii
00000000000813a0 W _ZN29TAndorZolixSpectrographEeprom12GetNoFiltersEv
0000000000081304 T _ZN29TAndorZolixSpectrographEeprom12WriteIfDirtyEv
00000000000800da T _ZN29TAndorZolixSpectrographEeprom12WriteOffsetsEv
0000000000081400 W _ZN29TAndorZolixSpectrographEeprom14GetMaxNoInputsEv
00000000000b7f98 R _ZN29TAndorZolixSpectrographEeprom14SIZEOF_GEN_DOME
00000000000b7fac R _ZN29TAndorZolixSpectrographEeprom14SIZEOF_SPACE_1E
00000000000b7fec R _ZN29TAndorZolixSpectrographEeprom14SIZEOF_SPACE_2E
00000000000813f0 W _ZN29TAndorZolixSpectrographEeprom15GetMaxNoOutputsEv
00000000000813e0 W _ZN29TAndorZolixSpectrographEeprom15GetMaxNoTurretsEv
00000000000813d0 W _ZN29TAndorZolixSpectrographEeprom15GetMinNoTurretsEv
0000000000080464 T _ZN29TAndorZolixSpectrographEeprom15IsGAFAAvailableEv
00000000000b7f9c R _ZN29TAndorZolixSpectrographEeprom15SIZEOF_GEN_DATEE
00000000000b7fb0 R _ZN29TAndorZolixSpectrographEeprom15SIZEOF_WAV_POLYE
000000000007ec54 T _ZN29TAndorZolixSpectrographEeprom15readGratingInfoEii
000000000008069a T _ZN29TAndorZolixSpectrographEeprom16GetEepromAddressEi
00000000000813c0 W _ZN29TAndorZolixSpectrographEeprom16GetMaxNoGratingsEv
00000000000813b0 W _ZN29TAndorZolixSpectrographEeprom16GetMinNoGratingsEv
000000000007f6b2 T _ZN29TAndorZolixSpectrographEeprom16writeGratingInfoEii
00000000000b7fa4 R _ZN29TAndorZolixSpectrographEeprom17SIZEOF_GEN_ANGDEVE
00000000000b7fa0 R _ZN29TAndorZolixSpectrographEeprom17SIZEOF_GEN_FOCLENE
00000000000b7fa8 R _ZN29TAndorZolixSpectrographEeprom17SIZEOF_GEN_FOCTLTE
00000000000b7f94 R _ZN29TAndorZolixSpectrographEeprom17SIZEOF_GEN_IVERNOE
00000000000b7f90 R _ZN29TAndorZolixSpectrographEeprom17SIZEOF_GEN_SVERNOE
00000000000b7ff0 R _ZN29TAndorZolixSpectrographEeprom17SIZEOF_SPACE_2_V3E
0000000000080566 T _ZN29TAndorZolixSpectrographEeprom17StoreActiveTurretEv
00000000000b7f88 R _ZN29TAndorZolixSpectrographEeprom19POSITION_GEN_SVERNOE
00000000000b7f8c R _ZN29TAndorZolixSpectrographEeprom19SIZEOF_GEN_IDSTRINGE
00000000000b7fb4 R _ZN29TAndorZolixSpectrographEeprom19SIZEOF_WAV_SINPHASEE
00000000000804c0 T _ZN29TAndorZolixSpectrographEeprom20GetCurrentWavelengthEv
0000000000080474 T _ZN29TAndorZolixSpectrographEeprom20GetWaveToStepsEnableEv
00000000000b7fdc R _ZN29TAndorZolixSpectrographEeprom20SIZEOF_WAV_GRATBLAZEE
00000000000b7fd8 R _ZN29TAndorZolixSpectrographEeprom20SIZEOF_WAV_GRATLINESE
00000000000b7fcc R _ZN29TAndorZolixSpectrographEeprom20SIZEOF_WAV_GRATSTARTE
00000000000804dc T _ZN29TAndorZolixSpectrographEeprom20SetCurrentWavelengthEf
000000000008048a T _ZN29TAndorZolixSpectrographEeprom20SetWaveToStepsEnableEh
00000000000806b8 T _ZN29TAndorZolixSpectrographEeprom20SetupEepromAddressesEii
00000000000b8004 R _ZN29TAndorZolixSpectrographEeprom21SIZEOF_WAV_GRATBLAZE2E
00000000000b801c R _ZN29TAndorZolixSpectrographEeprom21SIZEOF_WAV_GRATBLAZE3E
00000000000b8000 R _ZN29TAndorZolixSpectrographEeprom21SIZEOF_WAV_GRATLINES2E
00000000000b8018 R _ZN29TAndorZolixSpectrographEeprom21SIZEOF_WAV_GRATLINES3E
00000000000b7fc8 R _ZN29TAndorZolixSpectrographEeprom21SIZEOF_WAV_GRATOFFSETE
00000000000b7ffc R _ZN29TAndorZolixSpectrographEeprom21SIZEOF_WAV_GRATSTART2E
00000000000b8014 R _ZN29TAndorZolixSpectrographEeprom21SIZEOF_WAV_GRATSTART3E
00000000000b7ff8 R _ZN29TAndorZolixSpectrographEeprom22SIZEOF_WAV_GRATOFFSET2E
00000000000b8010 R _ZN29TAndorZolixSpectrographEeprom22SIZEOF_WAV_GRATOFFSET3E
00000000000b7fe8 R _ZN29TAndorZolixSpectrographEeprom22SIZEOF_WAV_NOOFTURRETSE
00000000000b8028 R _ZN29TAndorZolixSpectrographEeprom23SIZEOF_WAV_ACTIVETURRETE
00000000000b7fe0 R _ZN29TAndorZolixSpectrographEeprom23SIZEOF_WAV_GRATBLAZE_V3E
00000000000b7fe4 R _ZN29TAndorZolixSpectrographEeprom23SIZEOF_WAV_NOOFGRATINGSE
00000000000b7fbc R _ZN29TAndorZolixSpectrographEeprom23SIZEOF_WAV_SINAMPLITUDEE
00000000000b7fb8 R _ZN29TAndorZolixSpectrographEeprom23SIZEOF_WAV_SINFREQUENCYE
0000000000080956 T _ZN29TAndorZolixSpectrographEeprom24GetAdjustedDetectorIndexEPi
00000000000b7ff4 R _ZN29TAndorZolixSpectrographEeprom24SIZEOF_FIL_FILTERSTRINGSE
00000000000b8008 R _ZN29TAndorZolixSpectrographEeprom24SIZEOF_WAV_GRATBLAZE2_V3E
00000000000b8020 R _ZN29TAndorZolixSpectrographEeprom24SIZEOF_WAV_GRATBLAZE3_V3E
00000000000b800c R _ZN29TAndorZolixSpectrographEeprom24SIZEOF_WAV_NOOFGRATINGS2E
00000000000b8024 R _ZN29TAndorZolixSpectrographEeprom24SIZEOF_WAV_NOOFGRATINGS3E
00000000000b7fd0 R _ZN29TAndorZolixSpectrographEeprom25SIZEOF_WAV_DETECTOROFFSETE
00000000000802ea T _ZN29TAndorZolixSpectrographEeprom26WriteOpticalParamsToEEPROMEfff
00000000000809d4 T _ZN29TAndorZolixSpectrographEeprom27GetActiveTurretGratingBlazeEi
0000000000080aba T _ZN29TAndorZolixSpectrographEeprom27GetActiveTurretGratingLinesEi
0000000000080b5a T _ZN29TAndorZolixSpectrographEeprom27GetActiveTurretGratingStartEi
00000000000809aa T _ZN29TAndorZolixSpectrographEeprom27GetActiveTurretNoOfGratingsEv
00000000000803ae T _ZN29TAndorZolixSpectrographEeprom27ReadOpticalParamsFromEEPROMEPfS0_S0_
0000000000080b8a T _ZN29TAndorZolixSpectrographEeprom28GetActiveTurretGratingOffsetEi
00000000000b7fc4 R _ZN29TAndorZolixSpectrographEeprom28SIZEOF_WAV_CURRENTWAVELENGTHE
00000000000b7fd4 R _ZN29TAndorZolixSpectrographEeprom28SIZEOF_WAV_DETECTOROFFSET_V3E
00000000000b7fc0 R _ZN29TAndorZolixSpectrographEeprom28SIZEOF_WAV_ENABLECALIBRATIONE
0000000000080bba T _ZN29TAndorZolixSpectrographEeprom28SetActiveTurretGratingOffsetEii
0000000000080bee T _ZN29TAndorZolixSpectrographEeprom34GetGratingBlazeFromGratingsCommandEi
0000000000080eae T _ZN29TAndorZolixSpectrographEeprom34GetGratingLinesFromGratingsCommandEi
000000000007f090 T _ZN29TAndorZolixSpectrographEeprom4ReadEv
000000000007faaa T _ZN29TAndorZolixSpectrographEeprom5WriteEv
000000000008127e T _ZN29TAndorZolixSpectrographEeprom8ReadByteEiRh
0000000000081192 T _ZN29TAndorZolixSpectrographEeprom9ReadFloatEiRf
00000000000810b0 T _ZN29TAndorZolixSpectrographEeprom9ReadInt32EiRi
00000000000812c6 T _ZN29TAndorZolixSpectrographEeprom9WriteByteEih
000000000007e67c T _ZN29TAndorZolixSpectrographEepromC1EP16TZolixOmniLambda
000000000007e67c T _ZN29TAndorZolixSpectrographEepromC2EP16TZolixOmniLambda
000000000007ec2e T _ZN29TAndorZolixSpectrographEepromD0Ev
000000000007ebce T _ZN29TAndorZolixSpectrographEepromD1Ev
000000000007ebce T _ZN29TAndorZolixSpectrographEepromD2Ev
00000000000888b8 T _ZN29TSpectrographZolixFocusMirror11FnAutoFocusEv
0000000000088a02 T _ZN29TSpectrographZolixFocusMirror11IsDebugModeEv
0000000000087f54 T _ZN29TSpectrographZolixFocusMirror14GetMirrorFocusEv
0000000000087e92 T _ZN29TSpectrographZolixFocusMirror14SetMirrorFocusEi
000000000008807c T _ZN29TSpectrographZolixFocusMirror16ResetFocusMirrorEv
0000000000088994 T _ZN29TSpectrographZolixFocusMirror17FnCancelAutoFocusEv
0000000000088570 T _ZN29TSpectrographZolixFocusMirror18GetFocusMirrorTiltEv
000000000008848c T _ZN29TSpectrographZolixFocusMirror18SetFocusMirrorTiltEi
0000000000088136 T _ZN29TSpectrographZolixFocusMirror20FocusMirrorAutoFocusEv
0000000000087fe8 T _ZN29TSpectrographZolixFocusMirror22GetFocusMirrorMaxStepsEv
00000000000887f8 T _ZN29TSpectrographZolixFocusMirror24GetFocusMirrorTiltOffsetEii
0000000000088796 T _ZN29TSpectrographZolixFocusMirror24GetFocusMirrorTiltOffsetEv
0000000000088628 T _ZN29TSpectrographZolixFocusMirror24SetFocusMirrorTiltOffsetEi
0000000000088686 T _ZN29TSpectrographZolixFocusMirror24SetFocusMirrorTiltOffsetEiii
000000000008818e T _ZN29TSpectrographZolixFocusMirror26FocusMirrorCancelAutoFocusEv
00000000000883d4 T _ZN29TSpectrographZolixFocusMirror26GetFocusMirrorTiltMaxStepsEv
0000000000088294 T _ZN29TSpectrographZolixFocusMirror26IsFocusMirrorTiltAvailableEv
00000000000881a8 T _ZN29TSpectrographZolixFocusMirror9IsPresentEv
0000000000087d76 T _ZN29TSpectrographZolixFocusMirrorC1EP16TZolixOmniLambdab
0000000000087d76 T _ZN29TSpectrographZolixFocusMirrorC2EP16TZolixOmniLambdab
0000000000087e6c T _ZN29TSpectrographZolixFocusMirrorD0Ev
0000000000087e1a T _ZN29TSpectrographZolixFocusMirrorD1Ev
0000000000087e1a T _ZN29TSpectrographZolixFocusMirrorD2Ev
000000000008b944 T _ZN29TSpectrographZolixGratingInfo10GetMaxWaveEi
000000000008b900 T _ZN29TSpectrographZolixGratingInfo19getWavelengthScalarEv
000000000008b882 T _ZN29TSpectrographZolixGratingInfo8GetBlazeEi
000000000008b84c T _ZN29TSpectrographZolixGratingInfo8GetLinesEi
000000000008b832 T _ZN29TSpectrographZolixGratingInfoC1EP16TZolixOmniLambda
000000000008b832 T _ZN29TSpectrographZolixGratingInfoC2EP16TZolixOmniLambda
000000000008b816 W _ZN29TZSpectrographGratingStrategyC1Ev
000000000008b816 W _ZN29TZSpectrographGratingStrategyC2Ev
000000000008b7c0 W _ZN29TZSpectrographGratingStrategyD0Ev
000000000008b78a W _ZN29TZSpectrographGratingStrategyD1Ev
000000000008b78a W _ZN29TZSpectrographGratingStrategyD2Ev
000000000008be4e T _ZN33TZSpectrographWaveStrategyBuiltIn13GetWavelengthERf
000000000008be20 T _ZN33TZSpectrographWaveStrategyBuiltIn13SetWavelengthEf
000000000008bde4 T _ZN33TZSpectrographWaveStrategyBuiltInC1EP16TZolixOmniLambda
000000000008bde4 T _ZN33TZSpectrographWaveStrategyBuiltInC2EP16TZolixOmniLambda
000000000008bb4c T _ZN36TZSpectrographGratingStrategyBuiltIn10GetGratingERi
000000000008bab8 T _ZN36TZSpectrographGratingStrategyBuiltIn10SetGratingEiN29TZSpectrographGratingStrategy17eWavelengthOptionE
000000000008bbb6 T _ZN36TZSpectrographGratingStrategyBuiltIn16GetGratingOffsetEiRi
000000000008bb76 T _ZN36TZSpectrographGratingStrategyBuiltIn16SetGratingOffsetEii
000000000008bc30 T _ZN36TZSpectrographGratingStrategyBuiltIn17GetDetectorOffsetEiiRi
000000000008bbee T _ZN36TZSpectrographGratingStrategyBuiltIn17SetDetectorOffsetEiii
000000000008bc6c T _ZN36TZSpectrographGratingStrategyBuiltIn23GratingOffsetAutoAdjustEv
000000000008bd24 T _ZN36TZSpectrographGratingStrategyBuiltIn23ResetWavelengthPositionEv
000000000008bcc8 T _ZN36TZSpectrographGratingStrategyBuiltIn29GratingOffsetCancelAutoAdjustEv
000000000008ba7c T _ZN36TZSpectrographGratingStrategyBuiltInC1EP16TZolixOmniLambda
000000000008ba7c T _ZN36TZSpectrographGratingStrategyBuiltInC2EP16TZolixOmniLambda
000000000008bdbe W _ZN36TZSpectrographGratingStrategyBuiltInD0Ev
000000000008bd7c W _ZN36TZSpectrographGratingStrategyBuiltInD1Ev
000000000008bd7c W _ZN36TZSpectrographGratingStrategyBuiltInD2Ev
000000000008680e T _ZN41TSpectrographZolixFlipperWithUserPosition11GetMaxStepsEv
0000000000086c42 T _ZN41TSpectrographZolixFlipperWithUserPosition12GetCCDLimitsEN20ISpectrographFlipper13TPortPositionERfS2_
0000000000086546 T _ZN41TSpectrographZolixFlipperWithUserPosition14SetFlipperPortEN20ISpectrographFlipper13TPortPositionE
0000000000086522 T _ZN41TSpectrographZolixFlipperWithUserPosition23PortPositionToZolixPortEN20ISpectrographFlipper13TPortPositionE
0000000000086bf0 T _ZN41TSpectrographZolixFlipperWithUserPosition5ResetEv
00000000000866f0 T _ZN41TSpectrographZolixFlipperWithUserPosition7GetPortEv
0000000000086b68 T _ZN41TSpectrographZolixFlipperWithUserPosition8GetMotorEPi
00000000000868e4 T _ZN41TSpectrographZolixFlipperWithUserPosition8SetMotorEi
0000000000086d32 T _ZN41TSpectrographZolixFlipperWithUserPosition9IsPresentEv
00000000000863f6 T _ZN41TSpectrographZolixFlipperWithUserPositionC1EP16TZolixOmniLambdaP28TSpectrographZolixStepTurretN20ISpectrographFlipper16TFlipperPositionE
00000000000863f6 T _ZN41TSpectrographZolixFlipperWithUserPositionC2EP16TZolixOmniLambdaP28TSpectrographZolixStepTurretN20ISpectrographFlipper16TFlipperPositionE
00000000000864fc T _ZN41TSpectrographZolixFlipperWithUserPositionD0Ev
00000000000864ba T _ZN41TSpectrographZolixFlipperWithUserPositionD1Ev
00000000000864ba T _ZN41TSpectrographZolixFlipperWithUserPositionD2Ev
000000000009bc56 W _ZN8TSDKSlit11GetSlitModeEv
000000000009bb06 T _ZN8TSDKSlit11GetSlitStepEv
000000000009bc48 W _ZN8TSDKSlit11SetSlitModeEPKc
000000000009ba00 T _ZN8TSDKSlit11UnsafeResetEv
000000000009bc76 W _ZN8TSDKSlit15GetZeroPositionEv
000000000009bc68 W _ZN8TSDKSlit15SetZeroPositionEi
000000000009b8fa T _ZN8TSDKSlit5ResetEv
000000000009b838 T _ZN8TSDKSlit7GetSlitEv
000000000009b726 T _ZN8TSDKSlit7SetSlitEf
000000000009bbb0 T _ZN8TSDKSlit9IsPresentEv
000000000009b6ea T _ZN8TSDKSlitC1EP12Spectrograph
000000000009b6ea T _ZN8TSDKSlitC2EP12Spectrograph
000000000009bcc8 W _ZN8TSDKSlitD0Ev
000000000009bc86 W _ZN8TSDKSlitD1Ev
000000000009bc86 W _ZN8TSDKSlitD2Ev
0000000000097444 W _ZN9__gnu_cxx13new_allocatorIP13TDeviceClientE10deallocateEPS2_m
00000000000975cc W _ZN9__gnu_cxx13new_allocatorIP13TDeviceClientE7destroyIS2_EEvPT_
00000000000974da W _ZN9__gnu_cxx13new_allocatorIP13TDeviceClientE8allocateEmPKv
0000000000097474 W _ZN9__gnu_cxx13new_allocatorIP13TDeviceClientE9constructIS2_IRKS2_EEEvPT_DpOT0_
0000000000097474 W _ZN9__gnu_cxx13new_allocatorIP13TDeviceClientE9constructIS2_JRKS2_EEEvPT_DpOT0_
00000000000975da W _ZN9__gnu_cxx13new_allocatorIP13TDeviceClientEC1Ev
00000000000975da W _ZN9__gnu_cxx13new_allocatorIP13TDeviceClientEC2Ev
000000000009743a W _ZN9__gnu_cxx13new_allocatorIP13TDeviceClientED1Ev
000000000009743a W _ZN9__gnu_cxx13new_allocatorIP13TDeviceClientED2Ev
0000000000083af4 W _ZN9__gnu_cxx13new_allocatorISsE10deallocateEPSsm
0000000000083d82 W _ZN9__gnu_cxx13new_allocatorISsE7destroyISsEEvPT_
0000000000083c10 W _ZN9__gnu_cxx13new_allocatorISsE8allocateEmPKv
0000000000083b4e W _ZN9__gnu_cxx13new_allocatorISsE9constructISsIRKSsEEEvPT_DpOT0_
0000000000083b4e W _ZN9__gnu_cxx13new_allocatorISsE9constructISsJRKSsEEEvPT_DpOT0_
0000000000083cce W _ZN9__gnu_cxx13new_allocatorISsEC1Ev
0000000000083cce W _ZN9__gnu_cxx13new_allocatorISsEC2Ev
0000000000083aea W _ZN9__gnu_cxx13new_allocatorISsED1Ev
0000000000083aea W _ZN9__gnu_cxx13new_allocatorISsED2Ev
00000000000939d4 W _ZN9__gnu_cxx13new_allocatorISt10_List_nodeIN15CSimpleIniTemplIc16SI_GenericNoCaseIcE11SI_ConvertAIcEE5EntryEEE10deallocateEPS9_m
0000000000091dfa W _ZN9__gnu_cxx13new_allocatorISt10_List_nodeIN15CSimpleIniTemplIc16SI_GenericNoCaseIcE11SI_ConvertAIcEE5EntryEEE7destroyIS9_EEvPT_
0000000000095d9a W _ZN9__gnu_cxx13new_allocatorISt10_List_nodeIN15CSimpleIniTemplIc16SI_GenericNoCaseIcE11SI_ConvertAIcEE5EntryEEE8allocateEmPKv
0000000000095f32 W _ZN9__gnu_cxx13new_allocatorISt10_List_nodeIN15CSimpleIniTemplIc16SI_GenericNoCaseIcE11SI_ConvertAIcEE5EntryEEE9constructIS9_IRKS8_EEEvPT_DpOT0_
00000000000958a8 W _ZN9__gnu_cxx13new_allocatorISt10_List_nodeIN15CSimpleIniTemplIc16SI_GenericNoCaseIcE11SI_ConvertAIcEE5EntryEEE9constructIS9_IS8_EEEvPT_DpOT0_
0000000000095f32 W _ZN9__gnu_cxx13new_allocatorISt10_List_nodeIN15CSimpleIniTemplIc16SI_GenericNoCaseIcE11SI_ConvertAIcEE5EntryEEE9constructIS9_JRKS8_EEEvPT_DpOT0_
00000000000958a8 W _ZN9__gnu_cxx13new_allocatorISt10_List_nodeIN15CSimpleIniTemplIc16SI_GenericNoCaseIcE11SI_ConvertAIcEE5EntryEEE9constructIS9_JS8_EEEvPT_DpOT0_
0000000000094e74 W _ZN9__gnu_cxx13new_allocatorISt10_List_nodeIN15CSimpleIniTemplIc16SI_GenericNoCaseIcE11SI_ConvertAIcEE5EntryEEEC1Ev
0000000000094e74 W _ZN9__gnu_cxx13new_allocatorISt10_List_nodeIN15CSimpleIniTemplIc16SI_GenericNoCaseIcE11SI_ConvertAIcEE5EntryEEEC2Ev
0000000000091de2 W _ZN9__gnu_cxx13new_allocatorISt10_List_nodeIN15CSimpleIniTemplIc16SI_GenericNoCaseIcE11SI_ConvertAIcEE5EntryEEED1Ev
0000000000091de2 W _ZN9__gnu_cxx13new_allocatorISt10_List_nodeIN15CSimpleIniTemplIc16SI_GenericNoCaseIcE11SI_ConvertAIcEE5EntryEEED2Ev
0000000000095938 W _ZN9__gnu_cxx13new_allocatorISt13_Rb_tree_nodeISt4pairIKN15CSimpleIniTemplIc16SI_GenericNoCaseIcE11SI_ConvertAIcEE5EntryEPKcEEE10deallocateEPSE_m
00000000000950c2 W _ZN9__gnu_cxx13new_allocatorISt13_Rb_tree_nodeISt4pairIKN15CSimpleIniTemplIc16SI_GenericNoCaseIcE11SI_ConvertAIcEE5EntryEPKcEEE7destroyISE_EEvPT_
0000000000095eb8 W _ZN9__gnu_cxx13new_allocatorISt13_Rb_tree_nodeISt4pairIKN15CSimpleIniTemplIc16SI_GenericNoCaseIcE11SI_ConvertAIcEE5EntryEPKcEEE8allocateEmPKv
000000000009675a W _ZN9__gnu_cxx13new_allocatorISt13_Rb_tree_nodeISt4pairIKN15CSimpleIniTemplIc16SI_GenericNoCaseIcE11SI_ConvertAIcEE5EntryEPKcEEE9constructISE_IRKSD_EEEvPT_DpOT0_
00000000000960b2 W _ZN9__gnu_cxx13new_allocatorISt13_Rb_tree_nodeISt4pairIKN15CSimpleIniTemplIc16SI_GenericNoCaseIcE11SI_ConvertAIcEE5EntryEPKcEEE9constructISE_IRSD_EEEvPT_DpOT0_
000000000009675a W _ZN9__gnu_cxx13new_allocatorISt13_Rb_tree_nodeISt4pairIKN15CSimpleIniTemplIc16SI_GenericNoCaseIcE11SI_ConvertAIcEE5EntryEPKcEEE9constructISE_JRKSD_EEEvPT_DpOT0_
00000000000960b2 W _ZN9__gnu_cxx13new_allocatorISt13_Rb_tree_nodeISt4pairIKN15CSimpleIniTemplIc16SI_GenericNoCaseIcE11SI_ConvertAIcEE5EntryEPKcEEE9constructISE_JRSD_EEEvPT_DpOT0_
000000000009595a W _ZN9__gnu_cxx13new_allocatorISt13_Rb_tree_nodeISt4pairIKN15CSimpleIniTemplIc16SI_GenericNoCaseIcE11SI_ConvertAIcEE5EntryEPKcEEEC1ERKSF_
000000000009592e W _ZN9__gnu_cxx13new_allocatorISt13_Rb_tree_nodeISt4pairIKN15CSimpleIniTemplIc16SI_GenericNoCaseIcE11SI_ConvertAIcEE5EntryEPKcEEEC1Ev
000000000009595a W _ZN9__gnu_cxx13new_allocatorISt13_Rb_tree_nodeISt4pairIKN15CSimpleIniTemplIc16SI_GenericNoCaseIcE11SI_ConvertAIcEE5EntryEPKcEEEC2ERKSF_
000000000009592e W _ZN9__gnu_cxx13new_allocatorISt13_Rb_tree_nodeISt4pairIKN15CSimpleIniTemplIc16SI_GenericNoCaseIcE11SI_ConvertAIcEE5EntryEPKcEEEC2Ev
0000000000094208 W _ZN9__gnu_cxx13new_allocatorISt13_Rb_tree_nodeISt4pairIKN15CSimpleIniTemplIc16SI_GenericNoCaseIcE11SI_ConvertAIcEE5EntryEPKcEEED1Ev
0000000000094208 W _ZN9__gnu_cxx13new_allocatorISt13_Rb_tree_nodeISt4pairIKN15CSimpleIniTemplIc16SI_GenericNoCaseIcE11SI_ConvertAIcEE5EntryEPKcEEED2Ev
0000000000094e52 W _ZN9__gnu_cxx13new_allocatorISt13_Rb_tree_nodeISt4pairIKN15CSimpleIniTemplIc16SI_GenericNoCaseIcE11SI_ConvertAIcEE5EntryESt8multimapIS9_PKcNS9_8KeyOrderESaIS2_ISA_SD_EEEEEE10deallocateEPSJ_m
0000000000093972 W _ZN9__gnu_cxx13new_allocatorISt13_Rb_tree_nodeISt4pairIKN15CSimpleIniTemplIc16SI_GenericNoCaseIcE11SI_ConvertAIcEE5EntryESt8multimapIS9_PKcNS9_8KeyOrderESaIS2_ISA_SD_EEEEEE7destroyISJ_EEvPT_
0000000000095e2e W _ZN9__gnu_cxx13new_allocatorISt13_Rb_tree_nodeISt4pairIKN15CSimpleIniTemplIc16SI_GenericNoCaseIcE11SI_ConvertAIcEE5EntryESt8multimapIS9_PKcNS9_8KeyOrderESaIS2_ISA_SD_EEEEEE8allocateEmPKv
000000000009602a W _ZN9__gnu_cxx13new_allocatorISt13_Rb_tree_nodeISt4pairIKN15CSimpleIniTemplIc16SI_GenericNoCaseIcE11SI_ConvertAIcEE5EntryESt8multimapIS9_PKcNS9_8KeyOrderESaIS2_ISA_SD_EEEEEE9constructISJ_IRSI_EEEvPT_DpOT0_
000000000009602a W _ZN9__gnu_cxx13new_allocatorISt13_Rb_tree_nodeISt4pairIKN15CSimpleIniTemplIc16SI_GenericNoCaseIcE11SI_ConvertAIcEE5EntryESt8multimapIS9_PKcNS9_8KeyOrderESaIS2_ISA_SD_EEEEEE9constructISJ_JRSI_EEEvPT_DpOT0_
0000000000094e48 W _ZN9__gnu_cxx13new_allocatorISt13_Rb_tree_nodeISt4pairIKN15CSimpleIniTemplIc16SI_GenericNoCaseIcE11SI_ConvertAIcEE5EntryESt8multimapIS9_PKcNS9_8KeyOrderESaIS2_ISA_SD_EEEEEEC1Ev
0000000000094e48 W _ZN9__gnu_cxx13new_allocatorISt13_Rb_tree_nodeISt4pairIKN15CSimpleIniTemplIc16SI_GenericNoCaseIcE11SI_ConvertAIcEE5EntryESt8multimapIS9_PKcNS9_8KeyOrderESaIS2_ISA_SD_EEEEEEC2Ev
0000000000091d20 W _ZN9__gnu_cxx13new_allocatorISt13_Rb_tree_nodeISt4pairIKN15CSimpleIniTemplIc16SI_GenericNoCaseIcE11SI_ConvertAIcEE5EntryESt8multimapIS9_PKcNS9_8KeyOrderESaIS2_ISA_SD_EEEEEED1Ev
0000000000091d20 W _ZN9__gnu_cxx13new_allocatorISt13_Rb_tree_nodeISt4pairIKN15CSimpleIniTemplIc16SI_GenericNoCaseIcE11SI_ConvertAIcEE5EntryESt8multimapIS9_PKcNS9_8KeyOrderESaIS2_ISA_SD_EEEEEED2Ev
000000000009d672 W _ZN9__gnu_cxx17__is_null_pointerINS_17__normal_iteratorIPwSbIwSt11char_traitsIwESaIwEEEEEEbT_
000000000009703a W _ZN9__gnu_cxx17__normal_iteratorIPP13TDeviceClientSt6vectorIS2_SaIS2_EEEC1ERKS3_
000000000009703a W _ZN9__gnu_cxx17__normal_iteratorIPP13TDeviceClientSt6vectorIS2_SaIS2_EEEC2ERKS3_
0000000000058e24 W _ZN9__gnu_cxx17__normal_iteratorIPcSsEmmEv
0000000000058ebe W _ZN9__gnu_cxx17__normal_iteratorIPcSsEppEv
000000000009d75e W _ZN9__gnu_cxx17__normal_iteratorIPwSbIwSt11char_traitsIwESaIwEEEppEv
0000000000058de8 W _ZN9__gnu_cxxeqIPcSsEEbRKNS_17__normal_iteratorIT_T0_EES7_
000000000009d5fa W _ZN9__gnu_cxxeqIPwSbIwSt11char_traitsIwESaIwEEEEbRKNS_17__normal_iteratorIT_T0_EESB_
0000000000058e44 W _ZN9__gnu_cxxltIPcSsEEbRKNS_17__normal_iteratorIT_T0_EES7_
000000000009d78f W _ZN9__gnu_cxxmiIPwSbIwSt11char_traitsIwESaIwEEEENS_17__normal_iteratorIT_T0_E15difference_typeERKS9_SC_
000000000009707f W _ZN9__gnu_cxxneIPP13TDeviceClientSt6vectorIS2_SaIS2_EEEEbRKNS_17__normal_iteratorIT_T0_EESC_
000000000009d636 W _ZN9__gnu_cxxneIPwSbIwSt11char_traitsIwESaIwEEEEbRKNS_17__normal_iteratorIT_T0_EESB_
0000000000058d00 W _ZNK10TAndorTime9GetTimeMsEv
000000000009cfe0 T _ZNK12AndorUtility19TAndorDynamicLoader15GetErrorMessageEv
00000000000933aa W _ZNK15CSimpleIniTemplIc16SI_GenericNoCaseIcE11SI_ConvertAIcEE10GetAllKeysEPKcRSt4listINS4_5EntryESaIS8_EE
0000000000093f6c W _ZNK15CSimpleIniTemplIc16SI_GenericNoCaseIcE11SI_ConvertAIcEE11SkipNewLineERPc
0000000000093538 W _ZNK15CSimpleIniTemplIc16SI_GenericNoCaseIcE11SI_ConvertAIcEE12GetAllValuesEPKcS6_RSt4listINS4_5EntryESaIS8_EE
0000000000093f44 W _ZNK15CSimpleIniTemplIc16SI_GenericNoCaseIcE11SI_ConvertAIcEE13IsNewLineCharEc
0000000000092e42 W _ZNK15CSimpleIniTemplIc16SI_GenericNoCaseIcE11SI_ConvertAIcEE14GetAllSectionsERSt4listINS4_5EntryESaIS6_EE
0000000000093fb8 W _ZNK15CSimpleIniTemplIc16SI_GenericNoCaseIcE11SI_ConvertAIcEE14IsMultiLineTagEPKc
000000000009383e W _ZNK15CSimpleIniTemplIc16SI_GenericNoCaseIcE11SI_ConvertAIcEE15IsMultiLineDataEPKc
0000000000093bc6 W _ZNK15CSimpleIniTemplIc16SI_GenericNoCaseIcE11SI_ConvertAIcEE17LoadMultiLineTextERPcRPKcS8_b
0000000000093156 W _ZNK15CSimpleIniTemplIc16SI_GenericNoCaseIcE11SI_ConvertAIcEE19OutputMultiLineTextERNS4_12OutputWriterERNS4_9ConverterEPKc
00000000000913e8 W _ZNK15CSimpleIniTemplIc16SI_GenericNoCaseIcE11SI_ConvertAIcEE4SaveERNS4_12OutputWriterEb
000000000009414e W _ZNK15CSimpleIniTemplIc16SI_GenericNoCaseIcE11SI_ConvertAIcEE5Entry8KeyOrderclERKS5_S8_
0000000000095b92 W _ZNK15CSimpleIniTemplIc16SI_GenericNoCaseIcE11SI_ConvertAIcEE5Entry9LoadOrderclERKS5_S8_
0000000000090daa W _ZNK15CSimpleIniTemplIc16SI_GenericNoCaseIcE11SI_ConvertAIcEE6IsLessEPKcS6_
0000000000093ee8 W _ZNK15CSimpleIniTemplIc16SI_GenericNoCaseIcE11SI_ConvertAIcEE7IsSpaceEc
0000000000090536 W _ZNK15CSimpleIniTemplIc16SI_GenericNoCaseIcE11SI_ConvertAIcEE8SaveFileEP8_IO_FILEb
000000000008f942 W _ZNK15CSimpleIniTemplIc16SI_GenericNoCaseIcE11SI_ConvertAIcEE8SaveFileEPKcb
0000000000092048 W _ZNK15CSimpleIniTemplIc16SI_GenericNoCaseIcE11SI_ConvertAIcEE9FindEntryERPcRPKcS9_S9_S9_
0000000000093f1c W _ZNK15CSimpleIniTemplIc16SI_GenericNoCaseIcE11SI_ConvertAIcEE9IsCommentEc
0000000000094764 W _ZNK16SI_GenericNoCaseIcE6locaseEc
0000000000092bdc W _ZNK16SI_GenericNoCaseIcEclEPKcS2_
000000000009760c W _ZNK9__gnu_cxx13new_allocatorIP13TDeviceClientE8max_sizeEv
0000000000083d28 W _ZNK9__gnu_cxx13new_allocatorISsE8max_sizeEv
0000000000096002 W _ZNK9__gnu_cxx13new_allocatorISt10_List_nodeIN15CSimpleIniTemplIc16SI_GenericNoCaseIcE11SI_ConvertAIcEE5EntryEEE8max_sizeEv
000000000009609e W _ZNK9__gnu_cxx13new_allocatorISt13_Rb_tree_nodeISt4pairIKN15CSimpleIniTemplIc16SI_GenericNoCaseIcE11SI_ConvertAIcEE5EntryEPKcEEE8max_sizeEv
0000000000096016 W _ZNK9__gnu_cxx13new_allocatorISt13_Rb_tree_nodeISt4pairIKN15CSimpleIniTemplIc16SI_GenericNoCaseIcE11SI_ConvertAIcEE5EntryESt8multimapIS9_PKcNS9_8KeyOrderESaIS2_ISA_SD_EEEEEE8max_sizeEv
0000000000097360 W _ZNK9__gnu_cxx17__normal_iteratorIPP13TDeviceClientSt6vectorIS2_SaIS2_EEE4baseEv
0000000000096c52 W _ZNK9__gnu_cxx17__normal_iteratorIPP13TDeviceClientSt6vectorIS2_SaIS2_EEEplERKl
0000000000058ede W _ZNK9__gnu_cxx17__normal_iteratorIPcSsE4baseEv
0000000000058eec W _ZNK9__gnu_cxx17__normal_iteratorIPcSsEdeEv
000000000009d720 W _ZNK9__gnu_cxx17__normal_iteratorIPwSbIwSt11char_traitsIwESaIwEEE4baseEv
000000000009d77e W _ZNK9__gnu_cxx17__normal_iteratorIPwSbIwSt11char_traitsIwESaIwEEEdeEv
                 U _ZNKSs4dataEv
                 U _ZNKSs4findEPKcm
                 U _ZNKSs4sizeEv
                 U _ZNKSs5c_strEv
                 U _ZNKSs6lengthEv
                 U _ZNKSs6substrEmm
                 U _ZNKSs7compareEPKc
                 U _ZNKSs8capacityEv
                 U _ZNKSsixEm
0000000000095214 W _ZNKSt10_Select1stISt4pairIKN15CSimpleIniTemplIc16SI_GenericNoCaseIcE11SI_ConvertAIcEE5EntryEPKcEEclERKSB_
0000000000094968 W _ZNKSt10_Select1stISt4pairIKN15CSimpleIniTemplIc16SI_GenericNoCaseIcE11SI_ConvertAIcEE5EntryEPKcEEclERSB_
0000000000095054 W _ZNKSt10_Select1stISt4pairIKN15CSimpleIniTemplIc16SI_GenericNoCaseIcE11SI_ConvertAIcEE5EntryESt8multimapIS7_PKcNS7_8KeyOrderESaIS0_IS8_SB_EEEEEclERKSG_
0000000000094574 W _ZNKSt10_Select1stISt4pairIKN15CSimpleIniTemplIc16SI_GenericNoCaseIcE11SI_ConvertAIcEE5EntryESt8multimapIS7_PKcNS7_8KeyOrderESaIS0_IS8_SB_EEEEEclERSG_
00000000000975fe W _ZNKSt12_Vector_baseIP13TDeviceClientSaIS1_EE19_M_get_Tp_allocatorEv
0000000000083d1a W _ZNKSt12_Vector_baseISsSaISsEE19_M_get_Tp_allocatorEv
000000000009781c W _ZNKSt13move_iteratorIPP13TDeviceClientE4baseEv
0000000000083f5c W _ZNKSt13move_iteratorIPSsE4baseEv
0000000000083eb0 W _ZNKSt13move_iteratorIPSsEdeEv
0000000000095b7c W _ZNKSt14_List_iteratorIN15CSimpleIniTemplIc16SI_GenericNoCaseIcE11SI_ConvertAIcEE5EntryEEdeEv
0000000000095ada W _ZNKSt14_List_iteratorIN15CSimpleIniTemplIc16SI_GenericNoCaseIcE11SI_ConvertAIcEE5EntryEEeqERKS7_
000000000009081e W _ZNKSt14_List_iteratorIN15CSimpleIniTemplIc16SI_GenericNoCaseIcE11SI_ConvertAIcEE5EntryEEneERKS7_
0000000000090860 W _ZNKSt14_List_iteratorIN15CSimpleIniTemplIc16SI_GenericNoCaseIcE11SI_ConvertAIcEE5EntryEEptEv
00000000000912d2 W _ZNKSt17_Rb_tree_iteratorISt4pairIKN15CSimpleIniTemplIc16SI_GenericNoCaseIcE11SI_ConvertAIcEE5EntryEPKcEEeqERKSC_
0000000000090d88 W _ZNKSt17_Rb_tree_iteratorISt4pairIKN15CSimpleIniTemplIc16SI_GenericNoCaseIcE11SI_ConvertAIcEE5EntryEPKcEEneERKSC_
0000000000090dda W _ZNKSt17_Rb_tree_iteratorISt4pairIKN15CSimpleIniTemplIc16SI_GenericNoCaseIcE11SI_ConvertAIcEE5EntryEPKcEEptEv
0000000000090bf6 W _ZNKSt17_Rb_tree_iteratorISt4pairIKN15CSimpleIniTemplIc16SI_GenericNoCaseIcE11SI_ConvertAIcEE5EntryESt8multimapIS7_PKcNS7_8KeyOrderESaIS0_IS8_SB_EEEEEeqERKSH_
0000000000090d26 W _ZNKSt17_Rb_tree_iteratorISt4pairIKN15CSimpleIniTemplIc16SI_GenericNoCaseIcE11SI_ConvertAIcEE5EntryESt8multimapIS7_PKcNS7_8KeyOrderESaIS0_IS8_SB_EEEEEptEv
                 U _ZNKSt18basic_stringstreamIcSt11char_traitsIcESaIcEE3strEv
000000000009326e W _ZNKSt20_List_const_iteratorIN15CSimpleIniTemplIc16SI_GenericNoCaseIcE11SI_ConvertAIcEE5EntryEEneERKS7_
00000000000932b0 W _ZNKSt20_List_const_iteratorIN15CSimpleIniTemplIc16SI_GenericNoCaseIcE11SI_ConvertAIcEE5EntryEEptEv
0000000000094df0 W _ZNKSt23_Rb_tree_const_iteratorISt4pairIKN15CSimpleIniTemplIc16SI_GenericNoCaseIcE11SI_ConvertAIcEE5EntryEPKcEEeqERKSC_
0000000000094d5e W _ZNKSt23_Rb_tree_const_iteratorISt4pairIKN15CSimpleIniTemplIc16SI_GenericNoCaseIcE11SI_ConvertAIcEE5EntryEPKcEEneERKSC_
0000000000094da8 W _ZNKSt23_Rb_tree_const_iteratorISt4pairIKN15CSimpleIniTemplIc16SI_GenericNoCaseIcE11SI_ConvertAIcEE5EntryEPKcEEptEv
0000000000093b4a W _ZNKSt23_Rb_tree_const_iteratorISt4pairIKN15CSimpleIniTemplIc16SI_GenericNoCaseIcE11SI_ConvertAIcEE5EntryESt8multimapIS7_PKcNS7_8KeyOrderESaIS0_IS8_SB_EEEEE13_M_const_castEv
0000000000094d08 W _ZNKSt23_Rb_tree_const_iteratorISt4pairIKN15CSimpleIniTemplIc16SI_GenericNoCaseIcE11SI_ConvertAIcEE5EntryESt8multimapIS7_PKcNS7_8KeyOrderESaIS0_IS8_SB_EEEEEeqERKSH_
0000000000094ade W _ZNKSt23_Rb_tree_const_iteratorISt4pairIKN15CSimpleIniTemplIc16SI_GenericNoCaseIcE11SI_ConvertAIcEE5EntryESt8multimapIS7_PKcNS7_8KeyOrderESaIS0_IS8_SB_EEEEEneERKSH_
0000000000094b28 W _ZNKSt23_Rb_tree_const_iteratorISt4pairIKN15CSimpleIniTemplIc16SI_GenericNoCaseIcE11SI_ConvertAIcEE5EntryESt8multimapIS7_PKcNS7_8KeyOrderESaIS0_IS8_SB_EEEEEptEv
0000000000094ac4 W _ZNKSt3mapIN15CSimpleIniTemplIc16SI_GenericNoCaseIcE11SI_ConvertAIcEE5EntryESt8multimapIS6_PKcNS6_8KeyOrderESaISt4pairIKS6_S9_EEESA_SaISB_ISC_SF_EEE3endEv
0000000000094ce2 W _ZNKSt3mapIN15CSimpleIniTemplIc16SI_GenericNoCaseIcE11SI_ConvertAIcEE5EntryESt8multimapIS6_PKcNS6_8KeyOrderESaISt4pairIKS6_S9_EEESA_SaISB_ISC_SF_EEE4findERSC_
0000000000094aaa W _ZNKSt3mapIN15CSimpleIniTemplIc16SI_GenericNoCaseIcE11SI_ConvertAIcEE5EntryESt8multimapIS6_PKcNS6_8KeyOrderESaISt4pairIKS6_S9_EEESA_SaISB_ISC_SF_EEE5beginEv
000000000009071c W _ZNKSt3mapIN15CSimpleIniTemplIc16SI_GenericNoCaseIcE11SI_ConvertAIcEE5EntryESt8multimapIS6_PKcNS6_8KeyOrderESaISt4pairIKS6_S9_EEESA_SaISB_ISC_SF_EEE5emptyEv
00000000000907b4 W _ZNKSt4listIN15CSimpleIniTemplIc16SI_GenericNoCaseIcE11SI_ConvertAIcEE5EntryESaIS6_EE5emptyEv
0000000000079acc W _ZNKSt5ctypeIcE7toupperEc
0000000000097210 W _ZNKSt6vectorIP13TDeviceClientSaIS1_EE12_M_check_lenEmPKc
0000000000096be6 W _ZNKSt6vectorIP13TDeviceClientSaIS1_EE4sizeEv
00000000000974b8 W _ZNKSt6vectorIP13TDeviceClientSaIS1_EE8max_sizeEv
0000000000083934 W _ZNKSt6vectorISsSaISsEE12_M_check_lenEmPKc
0000000000083a36 W _ZNKSt6vectorISsSaISsEE4sizeEv
0000000000083bc2 W _ZNKSt6vectorISsSaISsEE8max_sizeEv
0000000000095d0c W _ZNKSt8_Rb_treeIN15CSimpleIniTemplIc16SI_GenericNoCaseIcE11SI_ConvertAIcEE5EntryESt4pairIKS6_PKcESt10_Select1stISB_ENS6_8KeyOrderESaISB_EE14_M_lower_boundEPKSt13_Rb_tree_nodeISB_ESK_RS8_
00000000000963e2 W _ZNKSt8_Rb_treeIN15CSimpleIniTemplIc16SI_GenericNoCaseIcE11SI_ConvertAIcEE5EntryESt4pairIKS6_PKcESt10_Select1stISB_ENS6_8KeyOrderESaISB_EE21_M_get_Node_allocatorEv
0000000000095752 W _ZNKSt8_Rb_treeIN15CSimpleIniTemplIc16SI_GenericNoCaseIcE11SI_ConvertAIcEE5EntryESt4pairIKS6_PKcESt10_Select1stISB_ENS6_8KeyOrderESaISB_EE3endEv
000000000009578a W _ZNKSt8_Rb_treeIN15CSimpleIniTemplIc16SI_GenericNoCaseIcE11SI_ConvertAIcEE5EntryESt4pairIKS6_PKcESt10_Select1stISB_ENS6_8KeyOrderESaISB_EE4findERS8_
0000000000095728 W _ZNKSt8_Rb_treeIN15CSimpleIniTemplIc16SI_GenericNoCaseIcE11SI_ConvertAIcEE5EntryESt4pairIKS6_PKcESt10_Select1stISB_ENS6_8KeyOrderESaISB_EE5beginEv
00000000000947dc W _ZNKSt8_Rb_treeIN15CSimpleIniTemplIc16SI_GenericNoCaseIcE11SI_ConvertAIcEE5EntryESt4pairIKS6_PKcESt10_Select1stISB_ENS6_8KeyOrderESaISB_EE5emptyEv
0000000000095cfa W _ZNKSt8_Rb_treeIN15CSimpleIniTemplIc16SI_GenericNoCaseIcE11SI_ConvertAIcEE5EntryESt4pairIKS6_PKcESt10_Select1stISB_ENS6_8KeyOrderESaISB_EE6_M_endEv
0000000000096460 W _ZNKSt8_Rb_treeIN15CSimpleIniTemplIc16SI_GenericNoCaseIcE11SI_ConvertAIcEE5EntryESt4pairIKS6_PKcESt10_Select1stISB_ENS6_8KeyOrderESaISB_EE7_M_rootEv
0000000000095ce8 W _ZNKSt8_Rb_treeIN15CSimpleIniTemplIc16SI_GenericNoCaseIcE11SI_ConvertAIcEE5EntryESt4pairIKS6_PKcESt10_Select1stISB_ENS6_8KeyOrderESaISB_EE8_M_beginEv
0000000000095c40 W _ZNKSt8_Rb_treeIN15CSimpleIniTemplIc16SI_GenericNoCaseIcE11SI_ConvertAIcEE5EntryESt4pairIKS6_St8multimapIS6_PKcNS6_8KeyOrderESaIS7_IS8_SB_EEEESt10_Select1stISG_ESC_SaISG_EE14_M_lower_boundEPKSt13_Rb_tree_nodeISG_ESO_RS8_
00000000000953ca W _ZNKSt8_Rb_treeIN15CSimpleIniTemplIc16SI_GenericNoCaseIcE11SI_ConvertAIcEE5EntryESt4pairIKS6_St8multimapIS6_PKcNS6_8KeyOrderESaIS7_IS8_SB_EEEESt10_Select1stISG_ESC_SaISG_EE3endEv
0000000000095664 W _ZNKSt8_Rb_treeIN15CSimpleIniTemplIc16SI_GenericNoCaseIcE11SI_ConvertAIcEE5EntryESt4pairIKS6_St8multimapIS6_PKcNS6_8KeyOrderESaIS7_IS8_SB_EEEESt10_Select1stISG_ESC_SaISG_EE4findERS8_
00000000000953a0 W _ZNKSt8_Rb_treeIN15CSimpleIniTemplIc16SI_GenericNoCaseIcE11SI_ConvertAIcEE5EntryESt4pairIKS6_St8multimapIS6_PKcNS6_8KeyOrderESaIS7_IS8_SB_EEEESt10_Select1stISG_ESC_SaISG_EE5beginEv
0000000000091e32 W _ZNKSt8_Rb_treeIN15CSimpleIniTemplIc16SI_GenericNoCaseIcE11SI_ConvertAIcEE5EntryESt4pairIKS6_St8multimapIS6_PKcNS6_8KeyOrderESaIS7_IS8_SB_EEEESt10_Select1stISG_ESC_SaISG_EE5emptyEv
0000000000095c2e W _ZNKSt8_Rb_treeIN15CSimpleIniTemplIc16SI_GenericNoCaseIcE11SI_ConvertAIcEE5EntryESt4pairIKS6_St8multimapIS6_PKcNS6_8KeyOrderESaIS7_IS8_SB_EEEESt10_Select1stISG_ESC_SaISG_EE6_M_endEv
0000000000095c1c W _ZNKSt8_Rb_treeIN15CSimpleIniTemplIc16SI_GenericNoCaseIcE11SI_ConvertAIcEE5EntryESt4pairIKS6_St8multimapIS6_PKcNS6_8KeyOrderESaIS7_IS8_SB_EEEESt10_Select1stISG_ESC_SaISG_EE8_M_beginEv
0000000000094d44 W _ZNKSt8multimapIN15CSimpleIniTemplIc16SI_GenericNoCaseIcE11SI_ConvertAIcEE5EntryEPKcNS6_8KeyOrderESaISt4pairIKS6_S8_EEE3endEv
0000000000094dca W _ZNKSt8multimapIN15CSimpleIniTemplIc16SI_GenericNoCaseIcE11SI_ConvertAIcEE5EntryEPKcNS6_8KeyOrderESaISt4pairIKS6_S8_EEE4findERSB_
0000000000094d2a W _ZNKSt8multimapIN15CSimpleIniTemplIc16SI_GenericNoCaseIcE11SI_ConvertAIcEE5EntryEPKcNS6_8KeyOrderESaISt4pairIKS6_S8_EEE5beginEv
0000000000092cfa W _ZNKSt8multimapIN15CSimpleIniTemplIc16SI_GenericNoCaseIcE11SI_ConvertAIcEE5EntryEPKcNS6_8KeyOrderESaISt4pairIKS6_S8_EEE5emptyEv
                 U _ZNKSt9basic_iosIcSt11char_traitsIcEE3eofEv
                 U _ZNKSt9basic_iosIcSt11char_traitsIcEEntEv
0000000000097420 W _ZNSaIP13TDeviceClientEC1Ev
0000000000097420 W _ZNSaIP13TDeviceClientEC2Ev
0000000000097164 W _ZNSaIP13TDeviceClientED1Ev
0000000000097164 W _ZNSaIP13TDeviceClientED2Ev
0000000000083ad0 W _ZNSaISsEC1Ev
0000000000083ad0 W _ZNSaISsEC2Ev
0000000000083888 W _ZNSaISsED1Ev
0000000000083888 W _ZNSaISsED2Ev
00000000000939ba W _ZNSaISt10_List_nodeIN15CSimpleIniTemplIc16SI_GenericNoCaseIcE11SI_ConvertAIcEE5EntryEEEC1Ev
00000000000939ba W _ZNSaISt10_List_nodeIN15CSimpleIniTemplIc16SI_GenericNoCaseIcE11SI_ConvertAIcEE5EntryEEEC2Ev
000000000009069c W _ZNSaISt10_List_nodeIN15CSimpleIniTemplIc16SI_GenericNoCaseIcE11SI_ConvertAIcEE5EntryEEED1Ev
000000000009069c W _ZNSaISt10_List_nodeIN15CSimpleIniTemplIc16SI_GenericNoCaseIcE11SI_ConvertAIcEE5EntryEEED2Ev
00000000000950fa W _ZNSaISt13_Rb_tree_nodeISt4pairIKN15CSimpleIniTemplIc16SI_GenericNoCaseIcE11SI_ConvertAIcEE5EntryEPKcEEEC1ERKSD_
0000000000095066 W _ZNSaISt13_Rb_tree_nodeISt4pairIKN15CSimpleIniTemplIc16SI_GenericNoCaseIcE11SI_ConvertAIcEE5EntryEPKcEEEC1Ev
00000000000950fa W _ZNSaISt13_Rb_tree_nodeISt4pairIKN15CSimpleIniTemplIc16SI_GenericNoCaseIcE11SI_ConvertAIcEE5EntryEPKcEEEC2ERKSD_
0000000000095066 W _ZNSaISt13_Rb_tree_nodeISt4pairIKN15CSimpleIniTemplIc16SI_GenericNoCaseIcE11SI_ConvertAIcEE5EntryEPKcEEEC2Ev
000000000009275e W _ZNSaISt13_Rb_tree_nodeISt4pairIKN15CSimpleIniTemplIc16SI_GenericNoCaseIcE11SI_ConvertAIcEE5EntryEPKcEEED1Ev
000000000009275e W _ZNSaISt13_Rb_tree_nodeISt4pairIKN15CSimpleIniTemplIc16SI_GenericNoCaseIcE11SI_ConvertAIcEE5EntryEPKcEEED2Ev
00000000000938ea W _ZNSaISt13_Rb_tree_nodeISt4pairIKN15CSimpleIniTemplIc16SI_GenericNoCaseIcE11SI_ConvertAIcEE5EntryESt8multimapIS7_PKcNS7_8KeyOrderESaIS0_IS8_SB_EEEEEEC1Ev
00000000000938ea W _ZNSaISt13_Rb_tree_nodeISt4pairIKN15CSimpleIniTemplIc16SI_GenericNoCaseIcE11SI_ConvertAIcEE5EntryESt8multimapIS7_PKcNS7_8KeyOrderESaIS0_IS8_SB_EEEEEEC2Ev
00000000000905c4 W _ZNSaISt13_Rb_tree_nodeISt4pairIKN15CSimpleIniTemplIc16SI_GenericNoCaseIcE11SI_ConvertAIcEE5EntryESt8multimapIS7_PKcNS7_8KeyOrderESaIS0_IS8_SB_EEEEEED1Ev
00000000000905c4 W _ZNSaISt13_Rb_tree_nodeISt4pairIKN15CSimpleIniTemplIc16SI_GenericNoCaseIcE11SI_ConvertAIcEE5EntryESt8multimapIS7_PKcNS7_8KeyOrderESaIS0_IS8_SB_EEEEEED2Ev
                 U _ZNSaIcEC1Ev
                 U _ZNSaIcED1Ev
                 U _ZNSaIwEC1Ev
                 U _ZNSaIwED1Ev
                 U _ZNSbIwSt11char_traitsIwESaIwEE3endEv
                 U _ZNSbIwSt11char_traitsIwESaIwEE5beginEv
                 U _ZNSbIwSt11char_traitsIwESaIwEEC1EPKwRKS1_
                 U _ZNSbIwSt11char_traitsIwESaIwEED1Ev
                 U _ZNSi3getERc
                 U _ZNSi7putbackEc
                 U _ZNSirsERb
                 U _ZNSirsERf
                 U _ZNSirsERi
                 U _ZNSolsEPFRSoS_E
                 U _ZNSolsEf
                 U _ZNSolsEi
                 U _ZNSs12_Alloc_hiderC1EPcRKSaIcE
000000000009d3e1 W _ZNSs12_S_constructIN9__gnu_cxx17__normal_iteratorIPwSbIwSt11char_traitsIwESaIwEEEEEEPcT_S9_RKSaIcE
000000000009d444 W _ZNSs12_S_constructIN9__gnu_cxx17__normal_iteratorIPwSbIwSt11char_traitsIwESaIwEEEEEEPcT_S9_RKSaIcESt20forward_iterator_tag
                 U _ZNSs12_S_empty_repEv
000000000009d6bb W _ZNSs13_S_copy_charsIN9__gnu_cxx17__normal_iteratorIPwSbIwSt11char_traitsIwESaIwEEEEEEvPcT_S9_
000000000009d412 W _ZNSs16_S_construct_auxIN9__gnu_cxx17__normal_iteratorIPwSbIwSt11char_traitsIwESaIwEEEEEEPcT_S9_RKSaIcESt12__false_type
                 U _ZNSs3endEv
                 U _ZNSs4_Rep10_M_destroyERKSaIcE
                 U _ZNSs4_Rep10_M_refdataEv
                 U _ZNSs4_Rep26_M_set_length_and_sharableEm
                 U _ZNSs4_Rep9_S_createEmmRKSaIcE
                 U _ZNSs5beginEv
                 U _ZNSs5clearEv
                 U _ZNSs6appendEPKc
                 U _ZNSs6appendERKSs
                 U _ZNSs6appendEmc
                 U _ZNSs6insertEmRKSs
                 U _ZNSs6resizeEm
                 U _ZNSsC1EOSs
                 U _ZNSsC1EPKcRKSaIcE
                 U _ZNSsC1ERKSs
                 U _ZNSsC1Ev
000000000009d39a W _ZNSsC1IN9__gnu_cxx17__normal_iteratorIPwSbIwSt11char_traitsIwESaIwEEEEEET_S8_RKSaIcE
000000000009d39a W _ZNSsC2IN9__gnu_cxx17__normal_iteratorIPwSbIwSt11char_traitsIwESaIwEEEEEET_S8_RKSaIcE
                 U _ZNSsD1Ev
                 U _ZNSsaSEOSs
                 U _ZNSsaSEPKc
                 U _ZNSsaSERKSs
                 U _ZNSsixEm
                 U _ZNSspLEPKc
                 U _ZNSspLERKSs
                 U _ZNSspLEc
0000000000097572 W _ZNSt10_Iter_baseIN9__gnu_cxx17__normal_iteratorIPP13TDeviceClientSt6vectorIS3_SaIS3_EEEELb0EE7_S_baseES8_
0000000000097666 W _ZNSt10_Iter_baseIN9__gnu_cxx17__normal_iteratorIPP13TDeviceClientSt6vectorIS3_SaIS3_EEEELb1EE7_S_baseES8_
000000000009782d W _ZNSt10_Iter_baseIPP13TDeviceClientLb0EE7_S_baseES2_
00000000000977e7 W _ZNSt10_Iter_baseISt13move_iteratorIPP13TDeviceClientELb1EE7_S_baseES4_
0000000000091d8e W _ZNSt10_List_baseIN15CSimpleIniTemplIc16SI_GenericNoCaseIcE11SI_ConvertAIcEE5EntryESaIS6_EE10_List_implC1Ev
0000000000091d8e W _ZNSt10_List_baseIN15CSimpleIniTemplIc16SI_GenericNoCaseIcE11SI_ConvertAIcEE5EntryESaIS6_EE10_List_implC2Ev
000000000008fa2e W _ZNSt10_List_baseIN15CSimpleIniTemplIc16SI_GenericNoCaseIcE11SI_ConvertAIcEE5EntryESaIS6_EE10_List_implD1Ev
000000000008fa2e W _ZNSt10_List_baseIN15CSimpleIniTemplIc16SI_GenericNoCaseIcE11SI_ConvertAIcEE5EntryESaIS6_EE10_List_implD2Ev
0000000000095884 W _ZNSt10_List_baseIN15CSimpleIniTemplIc16SI_GenericNoCaseIcE11SI_ConvertAIcEE5EntryESaIS6_EE11_M_get_nodeEv
0000000000091e08 W _ZNSt10_List_baseIN15CSimpleIniTemplIc16SI_GenericNoCaseIcE11SI_ConvertAIcEE5EntryESaIS6_EE11_M_put_nodeEPSt10_List_nodeIS6_E
0000000000091dec W _ZNSt10_List_baseIN15CSimpleIniTemplIc16SI_GenericNoCaseIcE11SI_ConvertAIcEE5EntryESaIS6_EE21_M_get_Node_allocatorEv
0000000000091dc0 W _ZNSt10_List_baseIN15CSimpleIniTemplIc16SI_GenericNoCaseIcE11SI_ConvertAIcEE5EntryESaIS6_EE7_M_initEv
00000000000906b6 W _ZNSt10_List_baseIN15CSimpleIniTemplIc16SI_GenericNoCaseIcE11SI_ConvertAIcEE5EntryESaIS6_EE8_M_clearEv
0000000000090654 W _ZNSt10_List_baseIN15CSimpleIniTemplIc16SI_GenericNoCaseIcE11SI_ConvertAIcEE5EntryESaIS6_EEC1Ev
0000000000090654 W _ZNSt10_List_baseIN15CSimpleIniTemplIc16SI_GenericNoCaseIcE11SI_ConvertAIcEE5EntryESaIS6_EEC2Ev
000000000008fa48 W _ZNSt10_List_baseIN15CSimpleIniTemplIc16SI_GenericNoCaseIcE11SI_ConvertAIcEE5EntryESaIS6_EED1Ev
000000000008fa48 W _ZNSt10_List_baseIN15CSimpleIniTemplIc16SI_GenericNoCaseIcE11SI_ConvertAIcEE5EntryESaIS6_EED2Ev
0000000000096126 W _ZNSt10_List_nodeIN15CSimpleIniTemplIc16SI_GenericNoCaseIcE11SI_ConvertAIcEE5EntryEEC1IIRKS6_EEEDpOT_
0000000000095de6 W _ZNSt10_List_nodeIN15CSimpleIniTemplIc16SI_GenericNoCaseIcE11SI_ConvertAIcEE5EntryEEC1IIS6_EEEDpOT_
0000000000096126 W _ZNSt10_List_nodeIN15CSimpleIniTemplIc16SI_GenericNoCaseIcE11SI_ConvertAIcEE5EntryEEC1IJRKS6_EEEDpOT_
0000000000095de6 W _ZNSt10_List_nodeIN15CSimpleIniTemplIc16SI_GenericNoCaseIcE11SI_ConvertAIcEE5EntryEEC1IJS6_EEEDpOT_
0000000000096126 W _ZNSt10_List_nodeIN15CSimpleIniTemplIc16SI_GenericNoCaseIcE11SI_ConvertAIcEE5EntryEEC2IIRKS6_EEEDpOT_
0000000000095de6 W _ZNSt10_List_nodeIN15CSimpleIniTemplIc16SI_GenericNoCaseIcE11SI_ConvertAIcEE5EntryEEC2IIS6_EEEDpOT_
0000000000096126 W _ZNSt10_List_nodeIN15CSimpleIniTemplIc16SI_GenericNoCaseIcE11SI_ConvertAIcEE5EntryEEC2IJRKS6_EEEDpOT_
0000000000095de6 W _ZNSt10_List_nodeIN15CSimpleIniTemplIc16SI_GenericNoCaseIcE11SI_ConvertAIcEE5EntryEEC2IJS6_EEEDpOT_
000000000007ba04 W _ZNSt10lock_guardISt5mutexEC1ERS0_
000000000007ba04 W _ZNSt10lock_guardISt5mutexEC2ERS0_
000000000007ba30 W _ZNSt10lock_guardISt5mutexED1Ev
000000000007ba30 W _ZNSt10lock_guardISt5mutexED2Ev
0000000000095fa6 W _ZNSt11__alloc_neqISaISt10_List_nodeIN15CSimpleIniTemplIc16SI_GenericNoCaseIcE11SI_ConvertAIcEE5EntryEEELb1EE8_S_do_itERKS9_SC_
0000000000097683 W _ZNSt11__copy_moveILb1ELb1ESt26random_access_iterator_tagE8__copy_mIP13TDeviceClientEEPT_PKS5_S8_S6_
000000000009d37f W _ZNSt11char_traitsIcE6assignERcRKc
000000000007b92d W _ZNSt11char_traitsIcE7compareEPKcS2_m
0000000000083b16 W _ZNSt12_Destroy_auxILb0EE9__destroyIPSsEEvT_S3_
0000000000097466 W _ZNSt12_Destroy_auxILb1EE9__destroyIPP13TDeviceClientEEvT_S5_
00000000000972da W _ZNSt12_Vector_baseIP13TDeviceClientSaIS1_EE11_M_allocateEm
0000000000097126 W _ZNSt12_Vector_baseIP13TDeviceClientSaIS1_EE12_Vector_implC1Ev
0000000000097126 W _ZNSt12_Vector_baseIP13TDeviceClientSaIS1_EE12_Vector_implC2Ev
0000000000096d5a W _ZNSt12_Vector_baseIP13TDeviceClientSaIS1_EE12_Vector_implD1Ev
0000000000096d5a W _ZNSt12_Vector_baseIP13TDeviceClientSaIS1_EE12_Vector_implD2Ev
000000000009717e W _ZNSt12_Vector_baseIP13TDeviceClientSaIS1_EE13_M_deallocateEPS1_m
0000000000096dde W _ZNSt12_Vector_baseIP13TDeviceClientSaIS1_EE19_M_get_Tp_allocatorEv
0000000000096d74 W _ZNSt12_Vector_baseIP13TDeviceClientSaIS1_EEC1Ev
0000000000096d74 W _ZNSt12_Vector_baseIP13TDeviceClientSaIS1_EEC2Ev
0000000000096d8e W _ZNSt12_Vector_baseIP13TDeviceClientSaIS1_EED1Ev
0000000000096d8e W _ZNSt12_Vector_baseIP13TDeviceClientSaIS1_EED2Ev
00000000000839fe W _ZNSt12_Vector_baseISsSaISsEE11_M_allocateEm
000000000008384a W _ZNSt12_Vector_baseISsSaISsEE12_Vector_implC1Ev
000000000008384a W _ZNSt12_Vector_baseISsSaISsEE12_Vector_implC2Ev
000000000008356a W _ZNSt12_Vector_baseISsSaISsEE12_Vector_implD1Ev
000000000008356a W _ZNSt12_Vector_baseISsSaISsEE12_Vector_implD2Ev
00000000000838a2 W _ZNSt12_Vector_baseISsSaISsEE13_M_deallocateEPSsm
00000000000835ee W _ZNSt12_Vector_baseISsSaISsEE19_M_get_Tp_allocatorEv
0000000000083584 W _ZNSt12_Vector_baseISsSaISsEEC1Ev
0000000000083584 W _ZNSt12_Vector_baseISsSaISsEEC2Ev
000000000008359e W _ZNSt12_Vector_baseISsSaISsEED1Ev
000000000008359e W _ZNSt12_Vector_baseISsSaISsEED2Ev
0000000000095656 W _ZNSt12__alloc_swapISaISt10_List_nodeIN15CSimpleIniTemplIc16SI_GenericNoCaseIcE11SI_ConvertAIcEE5EntryEEELb1EE8_S_do_itERS9_SB_
00000000000967ce W _ZNSt13_Rb_tree_nodeISt4pairIKN15CSimpleIniTemplIc16SI_GenericNoCaseIcE11SI_ConvertAIcEE5EntryEPKcEEC1IIRKSB_EEEDpOT_
0000000000096244 W _ZNSt13_Rb_tree_nodeISt4pairIKN15CSimpleIniTemplIc16SI_GenericNoCaseIcE11SI_ConvertAIcEE5EntryEPKcEEC1IIRSB_EEEDpOT_
00000000000967ce W _ZNSt13_Rb_tree_nodeISt4pairIKN15CSimpleIniTemplIc16SI_GenericNoCaseIcE11SI_ConvertAIcEE5EntryEPKcEEC1IJRKSB_EEEDpOT_
0000000000096244 W _ZNSt13_Rb_tree_nodeISt4pairIKN15CSimpleIniTemplIc16SI_GenericNoCaseIcE11SI_ConvertAIcEE5EntryEPKcEEC1IJRSB_EEEDpOT_
00000000000967ce W _ZNSt13_Rb_tree_nodeISt4pairIKN15CSimpleIniTemplIc16SI_GenericNoCaseIcE11SI_ConvertAIcEE5EntryEPKcEEC2IIRKSB_EEEDpOT_
0000000000096244 W _ZNSt13_Rb_tree_nodeISt4pairIKN15CSimpleIniTemplIc16SI_GenericNoCaseIcE11SI_ConvertAIcEE5EntryEPKcEEC2IIRSB_EEEDpOT_
00000000000967ce W _ZNSt13_Rb_tree_nodeISt4pairIKN15CSimpleIniTemplIc16SI_GenericNoCaseIcE11SI_ConvertAIcEE5EntryEPKcEEC2IJRKSB_EEEDpOT_
0000000000096244 W _ZNSt13_Rb_tree_nodeISt4pairIKN15CSimpleIniTemplIc16SI_GenericNoCaseIcE11SI_ConvertAIcEE5EntryEPKcEEC2IJRSB_EEEDpOT_
00000000000961ae W _ZNSt13_Rb_tree_nodeISt4pairIKN15CSimpleIniTemplIc16SI_GenericNoCaseIcE11SI_ConvertAIcEE5EntryESt8multimapIS7_PKcNS7_8KeyOrderESaIS0_IS8_SB_EEEEEC1IIRSG_EEEDpOT_
00000000000961ae W _ZNSt13_Rb_tree_nodeISt4pairIKN15CSimpleIniTemplIc16SI_GenericNoCaseIcE11SI_ConvertAIcEE5EntryESt8multimapIS7_PKcNS7_8KeyOrderESaIS0_IS8_SB_EEEEEC1IJRSG_EEEDpOT_
00000000000961ae W _ZNSt13_Rb_tree_nodeISt4pairIKN15CSimpleIniTemplIc16SI_GenericNoCaseIcE11SI_ConvertAIcEE5EntryESt8multimapIS7_PKcNS7_8KeyOrderESaIS0_IS8_SB_EEEEEC2IIRSG_EEEDpOT_
00000000000961ae W _ZNSt13_Rb_tree_nodeISt4pairIKN15CSimpleIniTemplIc16SI_GenericNoCaseIcE11SI_ConvertAIcEE5EntryESt8multimapIS7_PKcNS7_8KeyOrderESaIS0_IS8_SB_EEEEEC2IJRSG_EEEDpOT_
0000000000093954 W _ZNSt13_Rb_tree_nodeISt4pairIKN15CSimpleIniTemplIc16SI_GenericNoCaseIcE11SI_ConvertAIcEE5EntryESt8multimapIS7_PKcNS7_8KeyOrderESaIS0_IS8_SB_EEEEED1Ev
0000000000093954 W _ZNSt13_Rb_tree_nodeISt4pairIKN15CSimpleIniTemplIc16SI_GenericNoCaseIcE11SI_ConvertAIcEE5EntryESt8multimapIS7_PKcNS7_8KeyOrderESaIS0_IS8_SB_EEEEED2Ev
                 U _ZNSt13basic_fstreamIcSt11char_traitsIcEEC1EPKcSt13_Ios_Openmode
                 U _ZNSt13basic_fstreamIcSt11char_traitsIcEED1Ev
0000000000097620 W _ZNSt13move_iteratorIPP13TDeviceClientEC1ES2_
0000000000097620 W _ZNSt13move_iteratorIPP13TDeviceClientEC2ES2_
0000000000083d3c W _ZNSt13move_iteratorIPSsEC1ES0_
0000000000083d3c W _ZNSt13move_iteratorIPSsEC2ES0_
0000000000083e90 W _ZNSt13move_iteratorIPSsEppEv
0000000000091ed8 W _ZNSt14_List_iteratorIN15CSimpleIniTemplIc16SI_GenericNoCaseIcE11SI_ConvertAIcEE5EntryEEC1EPNSt8__detail15_List_node_baseE
0000000000091ed8 W _ZNSt14_List_iteratorIN15CSimpleIniTemplIc16SI_GenericNoCaseIcE11SI_ConvertAIcEE5EntryEEC2EPNSt8__detail15_List_node_baseE
0000000000090840 W _ZNSt14_List_iteratorIN15CSimpleIniTemplIc16SI_GenericNoCaseIcE11SI_ConvertAIcEE5EntryEEppEv
                 U _ZNSt14basic_ifstreamIcSt11char_traitsIcEEC1EPKcSt13_Ios_Openmode
                 U _ZNSt14basic_ifstreamIcSt11char_traitsIcEED1Ev
000000000008ca0c W _ZNSt14numeric_limitsIdE7epsilonEv
000000000008c9f8 W _ZNSt14numeric_limitsIfE7epsilonEv
00000000000973fb W _ZNSt16allocator_traitsISaIP13TDeviceClientEE10_S_destroyIS1_EENSt9enable_ifIXsrNS3_16__destroy_helperIT_EE5valueEvE4typeERS2_PS7_
00000000000976e8 W _ZNSt16allocator_traitsISaIP13TDeviceClientEE11_S_max_sizeIKS2_EENSt9enable_ifIXsrNS3_16__maxsize_helperIT_EE5valueEmE4typeERS8_
00000000000971d7 W _ZNSt16allocator_traitsISaIP13TDeviceClientEE12_S_constructIS1_IRKS1_EEENSt9enable_ifIXsrNS3_18__construct_helperIT_IDpT0_EEE5valueEvE4typeERS2_PS9_DpOSA_
00000000000971d7 W _ZNSt16allocator_traitsISaIP13TDeviceClientEE12_S_constructIS1_JRKS1_EEENSt9enable_ifIXsrNS3_18__construct_helperIT_JDpT0_EEE5valueEvE4typeERS2_PS9_DpOSA_
0000000000097101 W _ZNSt16allocator_traitsISaIP13TDeviceClientEE7destroyIS1_EEvRS2_PT_
00000000000975e4 W _ZNSt16allocator_traitsISaIP13TDeviceClientEE8max_sizeERKS2_
0000000000096e15 W _ZNSt16allocator_traitsISaIP13TDeviceClientEE9constructIS1_IRKS1_EEEDTcl12_S_constructfp_fp0_spcl7forwardIT0_Efp1_EEERS2_PT_DpOS7_
0000000000096e15 W _ZNSt16allocator_traitsISaIP13TDeviceClientEE9constructIS1_JRKS1_EEEDTcl12_S_constructfp_fp0_spcl7forwardIT0_Efp1_EEERS2_PT_DpOS7_
0000000000083ca8 W _ZNSt16allocator_traitsISaISsEE10_S_destroyISsEENSt9enable_ifIXsrNS1_16__destroy_helperIT_EE5valueEvE4typeERS0_PS5_
0000000000083da0 W _ZNSt16allocator_traitsISaISsEE11_S_max_sizeIKS0_EENSt9enable_ifIXsrNS1_16__maxsize_helperIT_EE5valueEmE4typeERS6_
00000000000838fb W _ZNSt16allocator_traitsISaISsEE12_S_constructISsIRKSsEEENSt9enable_ifIXsrNS1_18__construct_helperIT_IDpT0_EEE5valueEvE4typeERS0_PS7_DpOS8_
00000000000838fb W _ZNSt16allocator_traitsISaISsEE12_S_constructISsJRKSsEEENSt9enable_ifIXsrNS1_18__construct_helperIT_JDpT0_EEE5valueEvE4typeERS0_PS7_DpOS8_
0000000000083aaa W _ZNSt16allocator_traitsISaISsEE7destroyISsEEvRS0_PT_
0000000000083d00 W _ZNSt16allocator_traitsISaISsEE8max_sizeERKS0_
0000000000083625 W _ZNSt16allocator_traitsISaISsEE9constructISsIRKSsEEEDTcl12_S_constructfp_fp0_spcl7forwardIT0_Efp1_EEERS0_PT_DpOS5_
0000000000083625 W _ZNSt16allocator_traitsISaISsEE9constructISsJRKSsEEEDTcl12_S_constructfp_fp0_spcl7forwardIT0_Efp1_EEERS0_PT_DpOS5_
0000000000096722 W _ZNSt16allocator_traitsISaISt13_Rb_tree_nodeISt4pairIKN15CSimpleIniTemplIc16SI_GenericNoCaseIcE11SI_ConvertAIcEE5EntryEPKcEEEE12_S_constructISD_IRKSC_EEENSt9enable_ifIXsrNSF_18__construct_helperIT_IDpT0_EEE5valueEvE4typeERSE_PSL_DpOSM_
0000000000095efa W _ZNSt16allocator_traitsISaISt13_Rb_tree_nodeISt4pairIKN15CSimpleIniTemplIc16SI_GenericNoCaseIcE11SI_ConvertAIcEE5EntryEPKcEEEE12_S_constructISD_IRSC_EEENSt9enable_ifIXsrNSF_18__construct_helperIT_IDpT0_EEE5valueEvE4typeERSE_PSK_DpOSL_
0000000000096722 W _ZNSt16allocator_traitsISaISt13_Rb_tree_nodeISt4pairIKN15CSimpleIniTemplIc16SI_GenericNoCaseIcE11SI_ConvertAIcEE5EntryEPKcEEEE12_S_constructISD_JRKSC_EEENSt9enable_ifIXsrNSF_18__construct_helperIT_JDpT0_EEE5valueEvE4typeERSE_PSL_DpOSM_
0000000000095efa W _ZNSt16allocator_traitsISaISt13_Rb_tree_nodeISt4pairIKN15CSimpleIniTemplIc16SI_GenericNoCaseIcE11SI_ConvertAIcEE5EntryEPKcEEEE12_S_constructISD_JRSC_EEENSt9enable_ifIXsrNSF_18__construct_helperIT_JDpT0_EEE5valueEvE4typeERSE_PSK_DpOSL_
00000000000966ea W _ZNSt16allocator_traitsISaISt13_Rb_tree_nodeISt4pairIKN15CSimpleIniTemplIc16SI_GenericNoCaseIcE11SI_ConvertAIcEE5EntryEPKcEEEE9constructISD_IRKSC_EEEDTcl12_S_constructfp_fp0_spcl7forwardIT0_Efp1_EEERSE_PT_DpOSJ_
00000000000959fa W _ZNSt16allocator_traitsISaISt13_Rb_tree_nodeISt4pairIKN15CSimpleIniTemplIc16SI_GenericNoCaseIcE11SI_ConvertAIcEE5EntryEPKcEEEE9constructISD_IRSC_EEEDTcl12_S_constructfp_fp0_spcl7forwardIT0_Efp1_EEERSE_PT_DpOSI_
00000000000966ea W _ZNSt16allocator_traitsISaISt13_Rb_tree_nodeISt4pairIKN15CSimpleIniTemplIc16SI_GenericNoCaseIcE11SI_ConvertAIcEE5EntryEPKcEEEE9constructISD_JRKSC_EEEDTcl12_S_constructfp_fp0_spcl7forwardIT0_Efp1_EEERSE_PT_DpOSJ_
00000000000959fa W _ZNSt16allocator_traitsISaISt13_Rb_tree_nodeISt4pairIKN15CSimpleIniTemplIc16SI_GenericNoCaseIcE11SI_ConvertAIcEE5EntryEPKcEEEE9constructISD_JRSC_EEEDTcl12_S_constructfp_fp0_spcl7forwardIT0_Efp1_EEERSE_PT_DpOSI_
0000000000095e80 W _ZNSt16allocator_traitsISaISt13_Rb_tree_nodeISt4pairIKN15CSimpleIniTemplIc16SI_GenericNoCaseIcE11SI_ConvertAIcEE5EntryESt8multimapIS8_PKcNS8_8KeyOrderESaIS1_IS9_SC_EEEEEEE12_S_constructISI_IRSH_EEENSt9enable_ifIXsrNSK_18__construct_helperIT_IDpT0_EEE5valueEvE4typeERSJ_PSP_DpOSQ_
0000000000095e80 W _ZNSt16allocator_traitsISaISt13_Rb_tree_nodeISt4pairIKN15CSimpleIniTemplIc16SI_GenericNoCaseIcE11SI_ConvertAIcEE5EntryESt8multimapIS8_PKcNS8_8KeyOrderESaIS1_IS9_SC_EEEEEEE12_S_constructISI_JRSH_EEENSt9enable_ifIXsrNSK_18__construct_helperIT_JDpT0_EEE5valueEvE4typeERSJ_PSP_DpOSQ_
000000000009598c W _ZNSt16allocator_traitsISaISt13_Rb_tree_nodeISt4pairIKN15CSimpleIniTemplIc16SI_GenericNoCaseIcE11SI_ConvertAIcEE5EntryESt8multimapIS8_PKcNS8_8KeyOrderESaIS1_IS9_SC_EEEEEEE9constructISI_IRSH_EEEDTcl12_S_constructfp_fp0_spcl7forwardIT0_Efp1_EEERSJ_PT_DpOSN_
000000000009598c W _ZNSt16allocator_traitsISaISt13_Rb_tree_nodeISt4pairIKN15CSimpleIniTemplIc16SI_GenericNoCaseIcE11SI_ConvertAIcEE5EntryESt8multimapIS8_PKcNS8_8KeyOrderESaIS1_IS9_SC_EEEEEEE9constructISI_JRSH_EEEDTcl12_S_constructfp_fp0_spcl7forwardIT0_Efp1_EEERSJ_PT_DpOSN_
000000000009474a W _ZNSt17_Rb_tree_iteratorISt4pairIKN15CSimpleIniTemplIc16SI_GenericNoCaseIcE11SI_ConvertAIcEE5EntryEPKcEEC1EPSt13_Rb_tree_nodeISB_E
0000000000092c88 W _ZNSt17_Rb_tree_iteratorISt4pairIKN15CSimpleIniTemplIc16SI_GenericNoCaseIcE11SI_ConvertAIcEE5EntryEPKcEEC1Ev
000000000009474a W _ZNSt17_Rb_tree_iteratorISt4pairIKN15CSimpleIniTemplIc16SI_GenericNoCaseIcE11SI_ConvertAIcEE5EntryEPKcEEC2EPSt13_Rb_tree_nodeISB_E
0000000000092c88 W _ZNSt17_Rb_tree_iteratorISt4pairIKN15CSimpleIniTemplIc16SI_GenericNoCaseIcE11SI_ConvertAIcEE5EntryEPKcEEC2Ev
0000000000092c9e W _ZNSt17_Rb_tree_iteratorISt4pairIKN15CSimpleIniTemplIc16SI_GenericNoCaseIcE11SI_ConvertAIcEE5EntryEPKcEEppEi
0000000000090dfc W _ZNSt17_Rb_tree_iteratorISt4pairIKN15CSimpleIniTemplIc16SI_GenericNoCaseIcE11SI_ConvertAIcEE5EntryEPKcEEppEv
00000000000939f6 W _ZNSt17_Rb_tree_iteratorISt4pairIKN15CSimpleIniTemplIc16SI_GenericNoCaseIcE11SI_ConvertAIcEE5EntryESt8multimapIS7_PKcNS7_8KeyOrderESaIS0_IS8_SB_EEEEEC1EPSt13_Rb_tree_nodeISG_E
00000000000939f6 W _ZNSt17_Rb_tree_iteratorISt4pairIKN15CSimpleIniTemplIc16SI_GenericNoCaseIcE11SI_ConvertAIcEE5EntryESt8multimapIS7_PKcNS7_8KeyOrderESaIS0_IS8_SB_EEEEEC2EPSt13_Rb_tree_nodeISG_E
0000000000095120 W _ZNSt17_Rb_tree_iteratorISt4pairIKN15CSimpleIniTemplIc16SI_GenericNoCaseIcE11SI_ConvertAIcEE5EntryESt8multimapIS7_PKcNS7_8KeyOrderESaIS0_IS8_SB_EEEEEmmEv
0000000000095296 W _ZNSt17_Rb_tree_iteratorISt4pairIKN15CSimpleIniTemplIc16SI_GenericNoCaseIcE11SI_ConvertAIcEE5EntryESt8multimapIS7_PKcNS7_8KeyOrderESaIS0_IS8_SB_EEEEEppEv
000000000008f744 W _ZNSt18_Rb_tree_node_base10_S_maximumEPS_
000000000008f71b W _ZNSt18_Rb_tree_node_base10_S_minimumEPS_
                 U _ZNSt18basic_stringstreamIcSt11char_traitsIcESaIcEEC1ERKSsSt13_Ios_Openmode
                 U _ZNSt18basic_stringstreamIcSt11char_traitsIcESaIcEEC1ESt13_Ios_Openmode
                 U _ZNSt18basic_stringstreamIcSt11char_traitsIcESaIcEED1Ev
0000000000093252 W _ZNSt20_List_const_iteratorIN15CSimpleIniTemplIc16SI_GenericNoCaseIcE11SI_ConvertAIcEE5EntryEEC1ERKSt14_List_iteratorIS6_E
0000000000093252 W _ZNSt20_List_const_iteratorIN15CSimpleIniTemplIc16SI_GenericNoCaseIcE11SI_ConvertAIcEE5EntryEEC2ERKSt14_List_iteratorIS6_E
0000000000093290 W _ZNSt20_List_const_iteratorIN15CSimpleIniTemplIc16SI_GenericNoCaseIcE11SI_ConvertAIcEE5EntryEEppEv
0000000000083dba W _ZNSt20__uninitialized_copyILb0EE13__uninit_copyISt13move_iteratorIPSsES3_EET0_T_S6_S5_
0000000000097702 W _ZNSt20__uninitialized_copyILb1EE13__uninit_copyISt13move_iteratorIPP13TDeviceClientES5_EET0_T_S8_S7_
0000000000095cce W _ZNSt23_Rb_tree_const_iteratorISt4pairIKN15CSimpleIniTemplIc16SI_GenericNoCaseIcE11SI_ConvertAIcEE5EntryEPKcEEC1EPKSt13_Rb_tree_nodeISB_E
0000000000095226 W _ZNSt23_Rb_tree_const_iteratorISt4pairIKN15CSimpleIniTemplIc16SI_GenericNoCaseIcE11SI_ConvertAIcEE5EntryEPKcEEC1ERKSt17_Rb_tree_iteratorISB_E
0000000000095cce W _ZNSt23_Rb_tree_const_iteratorISt4pairIKN15CSimpleIniTemplIc16SI_GenericNoCaseIcE11SI_ConvertAIcEE5EntryEPKcEEC2EPKSt13_Rb_tree_nodeISB_E
0000000000095226 W _ZNSt23_Rb_tree_const_iteratorISt4pairIKN15CSimpleIniTemplIc16SI_GenericNoCaseIcE11SI_ConvertAIcEE5EntryEPKcEEC2ERKSt17_Rb_tree_iteratorISB_E
0000000000094d80 W _ZNSt23_Rb_tree_const_iteratorISt4pairIKN15CSimpleIniTemplIc16SI_GenericNoCaseIcE11SI_ConvertAIcEE5EntryEPKcEEppEv
0000000000095a32 W _ZNSt23_Rb_tree_const_iteratorISt4pairIKN15CSimpleIniTemplIc16SI_GenericNoCaseIcE11SI_ConvertAIcEE5EntryESt8multimapIS7_PKcNS7_8KeyOrderESaIS0_IS8_SB_EEEEEC1EPKSt13_Rb_tree_nodeISG_E
000000000009076a W _ZNSt23_Rb_tree_const_iteratorISt4pairIKN15CSimpleIniTemplIc16SI_GenericNoCaseIcE11SI_ConvertAIcEE5EntryESt8multimapIS7_PKcNS7_8KeyOrderESaIS0_IS8_SB_EEEEEC1ERKSt17_Rb_tree_iteratorISG_E
0000000000095a32 W _ZNSt23_Rb_tree_const_iteratorISt4pairIKN15CSimpleIniTemplIc16SI_GenericNoCaseIcE11SI_ConvertAIcEE5EntryESt8multimapIS7_PKcNS7_8KeyOrderESaIS0_IS8_SB_EEEEEC2EPKSt13_Rb_tree_nodeISG_E
000000000009076a W _ZNSt23_Rb_tree_const_iteratorISt4pairIKN15CSimpleIniTemplIc16SI_GenericNoCaseIcE11SI_ConvertAIcEE5EntryESt8multimapIS7_PKcNS7_8KeyOrderESaIS0_IS8_SB_EEEEEC2ERKSt17_Rb_tree_iteratorISG_E
0000000000094f0c W _ZNSt23_Rb_tree_const_iteratorISt4pairIKN15CSimpleIniTemplIc16SI_GenericNoCaseIcE11SI_ConvertAIcEE5EntryESt8multimapIS7_PKcNS7_8KeyOrderESaIS0_IS8_SB_EEEEEppEi
0000000000094b00 W _ZNSt23_Rb_tree_const_iteratorISt4pairIKN15CSimpleIniTemplIc16SI_GenericNoCaseIcE11SI_ConvertAIcEE5EntryESt8multimapIS7_PKcNS7_8KeyOrderESaIS0_IS8_SB_EEEEEppEv
0000000000090750 W _ZNSt3mapIN15CSimpleIniTemplIc16SI_GenericNoCaseIcE11SI_ConvertAIcEE5EntryESt8multimapIS6_PKcNS6_8KeyOrderESaISt4pairIKS6_S9_EEESA_SaISB_ISC_SF_EEE3endEv
0000000000090bd0 W _ZNSt3mapIN15CSimpleIniTemplIc16SI_GenericNoCaseIcE11SI_ConvertAIcEE5EntryESt8multimapIS6_PKcNS6_8KeyOrderESaISt4pairIKS6_S9_EEESA_SaISB_ISC_SF_EEE4findERSC_
0000000000090736 W _ZNSt3mapIN15CSimpleIniTemplIc16SI_GenericNoCaseIcE11SI_ConvertAIcEE5EntryESt8multimapIS6_PKcNS6_8KeyOrderESaISt4pairIKS6_S9_EEESA_SaISB_ISC_SF_EEE5beginEv
0000000000092d2e W _ZNSt3mapIN15CSimpleIniTemplIc16SI_GenericNoCaseIcE11SI_ConvertAIcEE5EntryESt8multimapIS6_PKcNS6_8KeyOrderESaISt4pairIKS6_S9_EEESA_SaISB_ISC_SF_EEE5eraseB5cxx11ESt17_Rb_tree_iteratorISG_E
0000000000090786 W _ZNSt3mapIN15CSimpleIniTemplIc16SI_GenericNoCaseIcE11SI_ConvertAIcEE5EntryESt8multimapIS6_PKcNS6_8KeyOrderESaISt4pairIKS6_S9_EEESA_SaISB_ISC_SF_EEE5eraseESt23_Rb_tree_const_iteratorISG_ESK_
0000000000090cf6 W _ZNSt3mapIN15CSimpleIniTemplIc16SI_GenericNoCaseIcE11SI_ConvertAIcEE5EntryESt8multimapIS6_PKcNS6_8KeyOrderESaISt4pairIKS6_S9_EEESA_SaISB_ISC_SF_EEE6insertIRSG_vEESB_ISt17_Rb_tree_iteratorISG_EbEOT_
000000000008f9a8 W _ZNSt3mapIN15CSimpleIniTemplIc16SI_GenericNoCaseIcE11SI_ConvertAIcEE5EntryESt8multimapIS6_PKcNS6_8KeyOrderESaISt4pairIKS6_S9_EEESA_SaISB_ISC_SF_EEEC1Ev
000000000008f9a8 W _ZNSt3mapIN15CSimpleIniTemplIc16SI_GenericNoCaseIcE11SI_ConvertAIcEE5EntryESt8multimapIS6_PKcNS6_8KeyOrderESaISt4pairIKS6_S9_EEESA_SaISB_ISC_SF_EEEC2Ev
000000000008f76e W _ZNSt3mapIN15CSimpleIniTemplIc16SI_GenericNoCaseIcE11SI_ConvertAIcEE5EntryESt8multimapIS6_PKcNS6_8KeyOrderESaISt4pairIKS6_S9_EEESA_SaISB_ISC_SF_EEED1Ev
000000000008f76e W _ZNSt3mapIN15CSimpleIniTemplIc16SI_GenericNoCaseIcE11SI_ConvertAIcEE5EntryESt8multimapIS6_PKcNS6_8KeyOrderESaISt4pairIKS6_S9_EEESA_SaISB_ISC_SF_EEED2Ev
0000000000095b4a W _ZNSt4listIN15CSimpleIniTemplIc16SI_GenericNoCaseIcE11SI_ConvertAIcEE5EntryESaIS6_EE11_M_transferESt14_List_iteratorIS6_ESA_SA_
0000000000095a4c W _ZNSt4listIN15CSimpleIniTemplIc16SI_GenericNoCaseIcE11SI_ConvertAIcEE5EntryESaIS6_EE14_M_create_nodeIIRKS6_EEEPSt10_List_nodeIS6_EDpOT_
0000000000094f88 W _ZNSt4listIN15CSimpleIniTemplIc16SI_GenericNoCaseIcE11SI_ConvertAIcEE5EntryESaIS6_EE14_M_create_nodeIIS6_EEEPSt10_List_nodeIS6_EDpOT_
0000000000095a4c W _ZNSt4listIN15CSimpleIniTemplIc16SI_GenericNoCaseIcE11SI_ConvertAIcEE5EntryESaIS6_EE14_M_create_nodeIJRKS6_EEEPSt10_List_nodeIS6_EDpOT_
0000000000094f88 W _ZNSt4listIN15CSimpleIniTemplIc16SI_GenericNoCaseIcE11SI_ConvertAIcEE5EntryESaIS6_EE14_M_create_nodeIJS6_EEEPSt10_List_nodeIS6_EDpOT_
0000000000095afc W _ZNSt4listIN15CSimpleIniTemplIc16SI_GenericNoCaseIcE11SI_ConvertAIcEE5EntryESaIS6_EE25_M_check_equal_allocatorsERS8_
00000000000907f8 W _ZNSt4listIN15CSimpleIniTemplIc16SI_GenericNoCaseIcE11SI_ConvertAIcEE5EntryESaIS6_EE3endEv
0000000000092ed6 W _ZNSt4listIN15CSimpleIniTemplIc16SI_GenericNoCaseIcE11SI_ConvertAIcEE5EntryESaIS6_EE4sortINS6_9LoadOrderEEEvT_
0000000000094c04 W _ZNSt4listIN15CSimpleIniTemplIc16SI_GenericNoCaseIcE11SI_ConvertAIcEE5EntryESaIS6_EE4swapERS8_
00000000000907d0 W _ZNSt4listIN15CSimpleIniTemplIc16SI_GenericNoCaseIcE11SI_ConvertAIcEE5EntryESaIS6_EE5beginEv
0000000000094a84 W _ZNSt4listIN15CSimpleIniTemplIc16SI_GenericNoCaseIcE11SI_ConvertAIcEE5EntryESaIS6_EE5clearEv
0000000000091f00 W _ZNSt4listIN15CSimpleIniTemplIc16SI_GenericNoCaseIcE11SI_ConvertAIcEE5EntryESaIS6_EE5eraseESt14_List_iteratorIS6_E
0000000000090882 W _ZNSt4listIN15CSimpleIniTemplIc16SI_GenericNoCaseIcE11SI_ConvertAIcEE5EntryESaIS6_EE5eraseESt14_List_iteratorIS6_ESA_
00000000000954fe W _ZNSt4listIN15CSimpleIniTemplIc16SI_GenericNoCaseIcE11SI_ConvertAIcEE5EntryESaIS6_EE5mergeINS6_9LoadOrderEEEvOS8_T_
0000000000094bca W _ZNSt4listIN15CSimpleIniTemplIc16SI_GenericNoCaseIcE11SI_ConvertAIcEE5EntryESaIS6_EE5mergeINS6_9LoadOrderEEEvRS8_T_
000000000009545c W _ZNSt4listIN15CSimpleIniTemplIc16SI_GenericNoCaseIcE11SI_ConvertAIcEE5EntryESaIS6_EE6spliceESt14_List_iteratorIS6_EOS8_SA_
0000000000094b8c W _ZNSt4listIN15CSimpleIniTemplIc16SI_GenericNoCaseIcE11SI_ConvertAIcEE5EntryESaIS6_EE6spliceESt14_List_iteratorIS6_ERS8_SA_
0000000000093b72 W _ZNSt4listIN15CSimpleIniTemplIc16SI_GenericNoCaseIcE11SI_ConvertAIcEE5EntryESaIS6_EE8_M_eraseESt14_List_iteratorIS6_E
0000000000095410 W _ZNSt4listIN15CSimpleIniTemplIc16SI_GenericNoCaseIcE11SI_ConvertAIcEE5EntryESaIS6_EE9_M_insertIIRKS6_EEEvSt14_List_iteratorIS6_EDpOT_
0000000000094036 W _ZNSt4listIN15CSimpleIniTemplIc16SI_GenericNoCaseIcE11SI_ConvertAIcEE5EntryESaIS6_EE9_M_insertIIS6_EEEvSt14_List_iteratorIS6_EDpOT_
0000000000095410 W _ZNSt4listIN15CSimpleIniTemplIc16SI_GenericNoCaseIcE11SI_ConvertAIcEE5EntryESaIS6_EE9_M_insertIJRKS6_EEEvSt14_List_iteratorIS6_EDpOT_
0000000000094036 W _ZNSt4listIN15CSimpleIniTemplIc16SI_GenericNoCaseIcE11SI_ConvertAIcEE5EntryESaIS6_EE9_M_insertIJS6_EEEvSt14_List_iteratorIS6_EDpOT_
0000000000092638 W _ZNSt4listIN15CSimpleIniTemplIc16SI_GenericNoCaseIcE11SI_ConvertAIcEE5EntryESaIS6_EE9push_backEOS6_
0000000000094b4a W _ZNSt4listIN15CSimpleIniTemplIc16SI_GenericNoCaseIcE11SI_ConvertAIcEE5EntryESaIS6_EE9push_backERKS6_
000000000008fa14 W _ZNSt4listIN15CSimpleIniTemplIc16SI_GenericNoCaseIcE11SI_ConvertAIcEE5EntryESaIS6_EEC1Ev
000000000008fa14 W _ZNSt4listIN15CSimpleIniTemplIc16SI_GenericNoCaseIcE11SI_ConvertAIcEE5EntryESaIS6_EEC2Ev
000000000008f788 W _ZNSt4listIN15CSimpleIniTemplIc16SI_GenericNoCaseIcE11SI_ConvertAIcEE5EntryESaIS6_EED1Ev
000000000008f788 W _ZNSt4listIN15CSimpleIniTemplIc16SI_GenericNoCaseIcE11SI_ConvertAIcEE5EntryESaIS6_EED2Ev
000000000009620e W _ZNSt4pairIKN15CSimpleIniTemplIc16SI_GenericNoCaseIcE11SI_ConvertAIcEE5EntryEPKcEC1ERKSA_
000000000008fdca W _ZNSt4pairIKN15CSimpleIniTemplIc16SI_GenericNoCaseIcE11SI_ConvertAIcEE5EntryEPKcEC1IRS6_S9_vEEOT_OT0_
000000000009620e W _ZNSt4pairIKN15CSimpleIniTemplIc16SI_GenericNoCaseIcE11SI_ConvertAIcEE5EntryEPKcEC2ERKSA_
000000000008fdca W _ZNSt4pairIKN15CSimpleIniTemplIc16SI_GenericNoCaseIcE11SI_ConvertAIcEE5EntryEPKcEC2IRS6_S9_vEEOT_OT0_
000000000009616e W _ZNSt4pairIKN15CSimpleIniTemplIc16SI_GenericNoCaseIcE11SI_ConvertAIcEE5EntryESt8multimapIS6_PKcNS6_8KeyOrderESaIS_IS7_SA_EEEEC1ERKSF_
000000000008fd4a W _ZNSt4pairIKN15CSimpleIniTemplIc16SI_GenericNoCaseIcE11SI_ConvertAIcEE5EntryESt8multimapIS6_PKcNS6_8KeyOrderESaIS_IS7_SA_EEEEC1IRS6_SE_vEEOT_OT0_
000000000009616e W _ZNSt4pairIKN15CSimpleIniTemplIc16SI_GenericNoCaseIcE11SI_ConvertAIcEE5EntryESt8multimapIS6_PKcNS6_8KeyOrderESaIS_IS7_SA_EEEEC2ERKSF_
000000000008fd4a W _ZNSt4pairIKN15CSimpleIniTemplIc16SI_GenericNoCaseIcE11SI_ConvertAIcEE5EntryESt8multimapIS6_PKcNS6_8KeyOrderESaIS_IS7_SA_EEEEC2IRS6_SE_vEEOT_OT0_
000000000008fd9e W _ZNSt4pairIKN15CSimpleIniTemplIc16SI_GenericNoCaseIcE11SI_ConvertAIcEE5EntryESt8multimapIS6_PKcNS6_8KeyOrderESaIS_IS7_SA_EEEED1Ev
000000000008fd9e W _ZNSt4pairIKN15CSimpleIniTemplIc16SI_GenericNoCaseIcE11SI_ConvertAIcEE5EntryESt8multimapIS6_PKcNS6_8KeyOrderESaIS_IS7_SA_EEEED2Ev
000000000009487c W _ZNSt4pairIPSt18_Rb_tree_node_baseS1_EC1IRPSt13_Rb_tree_nodeIS_IKN15CSimpleIniTemplIc16SI_GenericNoCaseIcE11SI_ConvertAIcEE5EntryEPKcEESI_vEEOT_OT0_
0000000000094378 W _ZNSt4pairIPSt18_Rb_tree_node_baseS1_EC1IRPSt13_Rb_tree_nodeIS_IKN15CSimpleIniTemplIc16SI_GenericNoCaseIcE11SI_ConvertAIcEE5EntryESt8multimapISB_PKcNSB_8KeyOrderESaIS_ISC_SF_EEEEESN_vEEOT_OT0_
00000000000943ca W _ZNSt4pairIPSt18_Rb_tree_node_baseS1_EC1IRS1_vEEOT_RKS1_
000000000009487c W _ZNSt4pairIPSt18_Rb_tree_node_baseS1_EC2IRPSt13_Rb_tree_nodeIS_IKN15CSimpleIniTemplIc16SI_GenericNoCaseIcE11SI_ConvertAIcEE5EntryEPKcEESI_vEEOT_OT0_
0000000000094378 W _ZNSt4pairIPSt18_Rb_tree_node_baseS1_EC2IRPSt13_Rb_tree_nodeIS_IKN15CSimpleIniTemplIc16SI_GenericNoCaseIcE11SI_ConvertAIcEE5EntryESt8multimapISB_PKcNSB_8KeyOrderESaIS_ISC_SF_EEEEESN_vEEOT_OT0_
00000000000943ca W _ZNSt4pairIPSt18_Rb_tree_node_baseS1_EC2IRS1_vEEOT_RKS1_
00000000000929be W _ZNSt4pairISt17_Rb_tree_iteratorIS_IKN15CSimpleIniTemplIc16SI_GenericNoCaseIcE11SI_ConvertAIcEE5EntryESt8multimapIS7_PKcNS7_8KeyOrderESaIS_IS8_SB_EEEEEbEC1ISH_bvEEOT_OT0_
00000000000929be W _ZNSt4pairISt17_Rb_tree_iteratorIS_IKN15CSimpleIniTemplIc16SI_GenericNoCaseIcE11SI_ConvertAIcEE5EntryESt8multimapIS7_PKcNS7_8KeyOrderESaIS_IS8_SB_EEEEEbEC2ISH_bvEEOT_OT0_
000000000007b95a W _ZNSt5mutex4lockEv
000000000007b988 W _ZNSt5mutex6unlockEv
                 U _ZNSt6locale6globalERKS_
                 U _ZNSt6localeC1EPKc
                 U _ZNSt6localeC1Ev
                 U _ZNSt6localeD1Ev
0000000000096e4e W _ZNSt6vectorIP13TDeviceClientSaIS1_EE19_M_emplace_back_auxIIRKS1_EEEvDpOT_
0000000000096e4e W _ZNSt6vectorIP13TDeviceClientSaIS1_EE19_M_emplace_back_auxIJRKS1_EEEvDpOT_
0000000000097056 W _ZNSt6vectorIP13TDeviceClientSaIS1_EE3endEv
0000000000096c2c W _ZNSt6vectorIP13TDeviceClientSaIS1_EE5beginEv
0000000000096c94 W _ZNSt6vectorIP13TDeviceClientSaIS1_EE5eraseEN9__gnu_cxx17__normal_iteratorIPS1_S3_EE
0000000000096b7a W _ZNSt6vectorIP13TDeviceClientSaIS1_EE9push_backERKS1_
0000000000096b0e W _ZNSt6vectorIP13TDeviceClientSaIS1_EEC1Ev
0000000000096b0e W _ZNSt6vectorIP13TDeviceClientSaIS1_EEC2Ev
0000000000096b28 W _ZNSt6vectorIP13TDeviceClientSaIS1_EED1Ev
0000000000096b28 W _ZNSt6vectorIP13TDeviceClientSaIS1_EED2Ev
0000000000096c0c W _ZNSt6vectorIP13TDeviceClientSaIS1_EEixEm
000000000008365e W _ZNSt6vectorISsSaISsEE19_M_emplace_back_auxIIRKSsEEEvDpOT_
000000000008365e W _ZNSt6vectorISsSaISsEE19_M_emplace_back_auxIJRKSsEEEvDpOT_
00000000000834fe W _ZNSt6vectorISsSaISsEE9push_backERKSs
0000000000083492 W _ZNSt6vectorISsSaISsEEC1Ev
0000000000083492 W _ZNSt6vectorISsSaISsEEC2Ev
00000000000834ac W _ZNSt6vectorISsSaISsEED1Ev
00000000000834ac W _ZNSt6vectorISsSaISsEED2Ev
000000000009497a W _ZNSt8_Rb_treeIN15CSimpleIniTemplIc16SI_GenericNoCaseIcE11SI_ConvertAIcEE5EntryESt4pairIKS6_PKcESt10_Select1stISB_ENS6_8KeyOrderESaISB_EE10_M_insert_IRSB_EESt17_Rb_tree_iteratorISB_EPSt18_Rb_tree_node_baseSM_OT_
00000000000965de W _ZNSt8_Rb_treeIN15CSimpleIniTemplIc16SI_GenericNoCaseIcE11SI_ConvertAIcEE5EntryESt4pairIKS6_PKcESt10_Select1stISB_ENS6_8KeyOrderESaISB_EE10_S_maximumEPSt18_Rb_tree_node_base
00000000000965c4 W _ZNSt8_Rb_treeIN15CSimpleIniTemplIc16SI_GenericNoCaseIcE11SI_ConvertAIcEE5EntryESt4pairIKS6_PKcESt10_Select1stISB_ENS6_8KeyOrderESaISB_EE10_S_minimumEPSt18_Rb_tree_node_base
00000000000959d6 W _ZNSt8_Rb_treeIN15CSimpleIniTemplIc16SI_GenericNoCaseIcE11SI_ConvertAIcEE5EntryESt4pairIKS6_PKcESt10_Select1stISB_ENS6_8KeyOrderESaISB_EE11_M_get_nodeEv
0000000000094334 W _ZNSt8_Rb_treeIN15CSimpleIniTemplIc16SI_GenericNoCaseIcE11SI_ConvertAIcEE5EntryESt4pairIKS6_PKcESt10_Select1stISB_ENS6_8KeyOrderESaISB_EE11_M_leftmostEv
00000000000950d0 W _ZNSt8_Rb_treeIN15CSimpleIniTemplIc16SI_GenericNoCaseIcE11SI_ConvertAIcEE5EntryESt4pairIKS6_PKcESt10_Select1stISB_ENS6_8KeyOrderESaISB_EE11_M_put_nodeEPSt13_Rb_tree_nodeISB_E
0000000000095242 W _ZNSt8_Rb_treeIN15CSimpleIniTemplIc16SI_GenericNoCaseIcE11SI_ConvertAIcEE5EntryESt4pairIKS6_PKcESt10_Select1stISB_ENS6_8KeyOrderESaISB_EE12_M_erase_auxESt23_Rb_tree_const_iteratorISB_E
0000000000094346 W _ZNSt8_Rb_treeIN15CSimpleIniTemplIc16SI_GenericNoCaseIcE11SI_ConvertAIcEE5EntryESt4pairIKS6_PKcESt10_Select1stISB_ENS6_8KeyOrderESaISB_EE12_M_rightmostEv
00000000000965f8 W _ZNSt8_Rb_treeIN15CSimpleIniTemplIc16SI_GenericNoCaseIcE11SI_ConvertAIcEE5EntryESt4pairIKS6_PKcESt10_Select1stISB_ENS6_8KeyOrderESaISB_EE13_M_clone_nodeEPKSt13_Rb_tree_nodeISB_E
0000000000095080 W _ZNSt8_Rb_treeIN15CSimpleIniTemplIc16SI_GenericNoCaseIcE11SI_ConvertAIcEE5EntryESt4pairIKS6_PKcESt10_Select1stISB_ENS6_8KeyOrderESaISB_EE13_Rb_tree_implISE_Lb1EE13_M_initializeEv
0000000000094284 W _ZNSt8_Rb_treeIN15CSimpleIniTemplIc16SI_GenericNoCaseIcE11SI_ConvertAIcEE5EntryESt4pairIKS6_PKcESt10_Select1stISB_ENS6_8KeyOrderESaISB_EE13_Rb_tree_implISE_Lb1EEC1ERKSE_OSaISt13_Rb_tree_nodeISB_EE
00000000000963f0 W _ZNSt8_Rb_treeIN15CSimpleIniTemplIc16SI_GenericNoCaseIcE11SI_ConvertAIcEE5EntryESt4pairIKS6_PKcESt10_Select1stISB_ENS6_8KeyOrderESaISB_EE13_Rb_tree_implISE_Lb1EEC1ERKSE_RKSaISt13_Rb_tree_nodeISB_EE
0000000000094184 W _ZNSt8_Rb_treeIN15CSimpleIniTemplIc16SI_GenericNoCaseIcE11SI_ConvertAIcEE5EntryESt4pairIKS6_PKcESt10_Select1stISB_ENS6_8KeyOrderESaISB_EE13_Rb_tree_implISE_Lb1EEC1Ev
0000000000094284 W _ZNSt8_Rb_treeIN15CSimpleIniTemplIc16SI_GenericNoCaseIcE11SI_ConvertAIcEE5EntryESt4pairIKS6_PKcESt10_Select1stISB_ENS6_8KeyOrderESaISB_EE13_Rb_tree_implISE_Lb1EEC2ERKSE_OSaISt13_Rb_tree_nodeISB_EE
00000000000963f0 W _ZNSt8_Rb_treeIN15CSimpleIniTemplIc16SI_GenericNoCaseIcE11SI_ConvertAIcEE5EntryESt4pairIKS6_PKcESt10_Select1stISB_ENS6_8KeyOrderESaISB_EE13_Rb_tree_implISE_Lb1EEC2ERKSE_RKSaISt13_Rb_tree_nodeISB_EE
0000000000094184 W _ZNSt8_Rb_treeIN15CSimpleIniTemplIc16SI_GenericNoCaseIcE11SI_ConvertAIcEE5EntryESt4pairIKS6_PKcESt10_Select1stISB_ENS6_8KeyOrderESaISB_EE13_Rb_tree_implISE_Lb1EEC2Ev
0000000000090c32 W _ZNSt8_Rb_treeIN15CSimpleIniTemplIc16SI_GenericNoCaseIcE11SI_ConvertAIcEE5EntryESt4pairIKS6_PKcESt10_Select1stISB_ENS6_8KeyOrderESaISB_EE13_Rb_tree_implISE_Lb1EED1Ev
0000000000090c32 W _ZNSt8_Rb_treeIN15CSimpleIniTemplIc16SI_GenericNoCaseIcE11SI_ConvertAIcEE5EntryESt4pairIKS6_PKcESt10_Select1stISB_ENS6_8KeyOrderESaISB_EE13_Rb_tree_implISE_Lb1EED2Ev
000000000009665c W _ZNSt8_Rb_treeIN15CSimpleIniTemplIc16SI_GenericNoCaseIcE11SI_ConvertAIcEE5EntryESt4pairIKS6_PKcESt10_Select1stISB_ENS6_8KeyOrderESaISB_EE14_M_create_nodeIIRKSB_EEEPSt13_Rb_tree_nodeISB_EDpOT_
0000000000095312 W _ZNSt8_Rb_treeIN15CSimpleIniTemplIc16SI_GenericNoCaseIcE11SI_ConvertAIcEE5EntryESt4pairIKS6_PKcESt10_Select1stISB_ENS6_8KeyOrderESaISB_EE14_M_create_nodeIIRSB_EEEPSt13_Rb_tree_nodeISB_EDpOT_
000000000009665c W _ZNSt8_Rb_treeIN15CSimpleIniTemplIc16SI_GenericNoCaseIcE11SI_ConvertAIcEE5EntryESt4pairIKS6_PKcESt10_Select1stISB_ENS6_8KeyOrderESaISB_EE14_M_create_nodeIJRKSB_EEEPSt13_Rb_tree_nodeISB_EDpOT_
0000000000095312 W _ZNSt8_Rb_treeIN15CSimpleIniTemplIc16SI_GenericNoCaseIcE11SI_ConvertAIcEE5EntryESt4pairIKS6_PKcESt10_Select1stISB_ENS6_8KeyOrderESaISB_EE14_M_create_nodeIJRSB_EEEPSt13_Rb_tree_nodeISB_EDpOT_
0000000000094690 W _ZNSt8_Rb_treeIN15CSimpleIniTemplIc16SI_GenericNoCaseIcE11SI_ConvertAIcEE5EntryESt4pairIKS6_PKcESt10_Select1stISB_ENS6_8KeyOrderESaISB_EE14_M_lower_boundEPSt13_Rb_tree_nodeISB_ESJ_RS8_
0000000000094236 W _ZNSt8_Rb_treeIN15CSimpleIniTemplIc16SI_GenericNoCaseIcE11SI_ConvertAIcEE5EntryESt4pairIKS6_PKcESt10_Select1stISB_ENS6_8KeyOrderESaISB_EE15_M_destroy_nodeEPSt13_Rb_tree_nodeISB_E
0000000000092d54 W _ZNSt8_Rb_treeIN15CSimpleIniTemplIc16SI_GenericNoCaseIcE11SI_ConvertAIcEE5EntryESt4pairIKS6_PKcESt10_Select1stISB_ENS6_8KeyOrderESaISB_EE15_M_insert_equalIRSB_EESt17_Rb_tree_iteratorISB_EOT_
0000000000094276 W _ZNSt8_Rb_treeIN15CSimpleIniTemplIc16SI_GenericNoCaseIcE11SI_ConvertAIcEE5EntryESt4pairIKS6_PKcESt10_Select1stISB_ENS6_8KeyOrderESaISB_EE21_M_get_Node_allocatorEv
00000000000948c0 W _ZNSt8_Rb_treeIN15CSimpleIniTemplIc16SI_GenericNoCaseIcE11SI_ConvertAIcEE5EntryESt4pairIKS6_PKcESt10_Select1stISB_ENS6_8KeyOrderESaISB_EE23_M_get_insert_equal_posERS8_
0000000000092bb2 W _ZNSt8_Rb_treeIN15CSimpleIniTemplIc16SI_GenericNoCaseIcE11SI_ConvertAIcEE5EntryESt4pairIKS6_PKcESt10_Select1stISB_ENS6_8KeyOrderESaISB_EE3endEv
0000000000092aee W _ZNSt8_Rb_treeIN15CSimpleIniTemplIc16SI_GenericNoCaseIcE11SI_ConvertAIcEE5EntryESt4pairIKS6_PKcESt10_Select1stISB_ENS6_8KeyOrderESaISB_EE4findERS8_
00000000000947f4 W _ZNSt8_Rb_treeIN15CSimpleIniTemplIc16SI_GenericNoCaseIcE11SI_ConvertAIcEE5EntryESt4pairIKS6_PKcESt10_Select1stISB_ENS6_8KeyOrderESaISB_EE5beginEv
000000000009478c W _ZNSt8_Rb_treeIN15CSimpleIniTemplIc16SI_GenericNoCaseIcE11SI_ConvertAIcEE5EntryESt4pairIKS6_PKcESt10_Select1stISB_ENS6_8KeyOrderESaISB_EE5eraseB5cxx11ESt17_Rb_tree_iteratorISB_E
0000000000094358 W _ZNSt8_Rb_treeIN15CSimpleIniTemplIc16SI_GenericNoCaseIcE11SI_ConvertAIcEE5EntryESt4pairIKS6_PKcESt10_Select1stISB_ENS6_8KeyOrderESaISB_EE6_M_endEv
00000000000951d6 W _ZNSt8_Rb_treeIN15CSimpleIniTemplIc16SI_GenericNoCaseIcE11SI_ConvertAIcEE5EntryESt4pairIKS6_PKcESt10_Select1stISB_ENS6_8KeyOrderESaISB_EE6_S_keyEPKSt13_Rb_tree_nodeISB_E
000000000009471d W _ZNSt8_Rb_treeIN15CSimpleIniTemplIc16SI_GenericNoCaseIcE11SI_ConvertAIcEE5EntryESt4pairIKS6_PKcESt10_Select1stISB_ENS6_8KeyOrderESaISB_EE6_S_keyEPKSt18_Rb_tree_node_base
0000000000096472 W _ZNSt8_Rb_treeIN15CSimpleIniTemplIc16SI_GenericNoCaseIcE11SI_ConvertAIcEE5EntryESt4pairIKS6_PKcESt10_Select1stISB_ENS6_8KeyOrderESaISB_EE7_M_copyEPKSt13_Rb_tree_nodeISB_EPSI_
0000000000094322 W _ZNSt8_Rb_treeIN15CSimpleIniTemplIc16SI_GenericNoCaseIcE11SI_ConvertAIcEE5EntryESt4pairIKS6_PKcESt10_Select1stISB_ENS6_8KeyOrderESaISB_EE7_M_rootEv
0000000000095fdd W _ZNSt8_Rb_treeIN15CSimpleIniTemplIc16SI_GenericNoCaseIcE11SI_ConvertAIcEE5EntryESt4pairIKS6_PKcESt10_Select1stISB_ENS6_8KeyOrderESaISB_EE7_S_leftEPKSt18_Rb_tree_node_base
0000000000094224 W _ZNSt8_Rb_treeIN15CSimpleIniTemplIc16SI_GenericNoCaseIcE11SI_ConvertAIcEE5EntryESt4pairIKS6_PKcESt10_Select1stISB_ENS6_8KeyOrderESaISB_EE7_S_leftEPSt18_Rb_tree_node_base
00000000000927dc W _ZNSt8_Rb_treeIN15CSimpleIniTemplIc16SI_GenericNoCaseIcE11SI_ConvertAIcEE5EntryESt4pairIKS6_PKcESt10_Select1stISB_ENS6_8KeyOrderESaISB_EE8_M_beginEv
0000000000092778 W _ZNSt8_Rb_treeIN15CSimpleIniTemplIc16SI_GenericNoCaseIcE11SI_ConvertAIcEE5EntryESt4pairIKS6_PKcESt10_Select1stISB_ENS6_8KeyOrderESaISB_EE8_M_eraseEPSt13_Rb_tree_nodeISB_E
0000000000095fef W _ZNSt8_Rb_treeIN15CSimpleIniTemplIc16SI_GenericNoCaseIcE11SI_ConvertAIcEE5EntryESt4pairIKS6_PKcESt10_Select1stISB_ENS6_8KeyOrderESaISB_EE8_S_rightEPKSt18_Rb_tree_node_base
0000000000094212 W _ZNSt8_Rb_treeIN15CSimpleIniTemplIc16SI_GenericNoCaseIcE11SI_ConvertAIcEE5EntryESt4pairIKS6_PKcESt10_Select1stISB_ENS6_8KeyOrderESaISB_EE8_S_rightEPSt18_Rb_tree_node_base
00000000000959c4 W _ZNSt8_Rb_treeIN15CSimpleIniTemplIc16SI_GenericNoCaseIcE11SI_ConvertAIcEE5EntryESt4pairIKS6_PKcESt10_Select1stISB_ENS6_8KeyOrderESaISB_EE8_S_valueEPKSt13_Rb_tree_nodeISB_E
0000000000095202 W _ZNSt8_Rb_treeIN15CSimpleIniTemplIc16SI_GenericNoCaseIcE11SI_ConvertAIcEE5EntryESt4pairIKS6_PKcESt10_Select1stISB_ENS6_8KeyOrderESaISB_EE8_S_valueEPKSt18_Rb_tree_node_base
000000000009283a W _ZNSt8_Rb_treeIN15CSimpleIniTemplIc16SI_GenericNoCaseIcE11SI_ConvertAIcEE5EntryESt4pairIKS6_PKcESt10_Select1stISB_ENS6_8KeyOrderESaISB_EEC1EOSG_
00000000000962ca W _ZNSt8_Rb_treeIN15CSimpleIniTemplIc16SI_GenericNoCaseIcE11SI_ConvertAIcEE5EntryESt4pairIKS6_PKcESt10_Select1stISB_ENS6_8KeyOrderESaISB_EEC1ERKSG_
0000000000092744 W _ZNSt8_Rb_treeIN15CSimpleIniTemplIc16SI_GenericNoCaseIcE11SI_ConvertAIcEE5EntryESt4pairIKS6_PKcESt10_Select1stISB_ENS6_8KeyOrderESaISB_EEC1Ev
000000000009283a W _ZNSt8_Rb_treeIN15CSimpleIniTemplIc16SI_GenericNoCaseIcE11SI_ConvertAIcEE5EntryESt4pairIKS6_PKcESt10_Select1stISB_ENS6_8KeyOrderESaISB_EEC2EOSG_
00000000000962ca W _ZNSt8_Rb_treeIN15CSimpleIniTemplIc16SI_GenericNoCaseIcE11SI_ConvertAIcEE5EntryESt4pairIKS6_PKcESt10_Select1stISB_ENS6_8KeyOrderESaISB_EEC2ERKSG_
0000000000092744 W _ZNSt8_Rb_treeIN15CSimpleIniTemplIc16SI_GenericNoCaseIcE11SI_ConvertAIcEE5EntryESt4pairIKS6_PKcESt10_Select1stISB_ENS6_8KeyOrderESaISB_EEC2Ev
0000000000090c4c W _ZNSt8_Rb_treeIN15CSimpleIniTemplIc16SI_GenericNoCaseIcE11SI_ConvertAIcEE5EntryESt4pairIKS6_PKcESt10_Select1stISB_ENS6_8KeyOrderESaISB_EED1Ev
0000000000090c4c W _ZNSt8_Rb_treeIN15CSimpleIniTemplIc16SI_GenericNoCaseIcE11SI_ConvertAIcEE5EntryESt4pairIKS6_PKcESt10_Select1stISB_ENS6_8KeyOrderESaISB_EED2Ev
0000000000094586 W _ZNSt8_Rb_treeIN15CSimpleIniTemplIc16SI_GenericNoCaseIcE11SI_ConvertAIcEE5EntryESt4pairIKS6_St8multimapIS6_PKcNS6_8KeyOrderESaIS7_IS8_SB_EEEESt10_Select1stISG_ESC_SaISG_EE10_M_insert_IRSG_EESt17_Rb_tree_iteratorISG_EPSt18_Rb_tree_node_baseSQ_OT_
0000000000095968 W _ZNSt8_Rb_treeIN15CSimpleIniTemplIc16SI_GenericNoCaseIcE11SI_ConvertAIcEE5EntryESt4pairIKS6_St8multimapIS6_PKcNS6_8KeyOrderESaIS7_IS8_SB_EEEESt10_Select1stISG_ESC_SaISG_EE11_M_get_nodeEv
000000000009584e W _ZNSt8_Rb_treeIN15CSimpleIniTemplIc16SI_GenericNoCaseIcE11SI_ConvertAIcEE5EntryESt4pairIKS6_St8multimapIS6_PKcNS6_8KeyOrderESaIS7_IS8_SB_EEEESt10_Select1stISG_ESC_SaISG_EE11_M_leftmostEv
0000000000093990 W _ZNSt8_Rb_treeIN15CSimpleIniTemplIc16SI_GenericNoCaseIcE11SI_ConvertAIcEE5EntryESt4pairIKS6_St8multimapIS6_PKcNS6_8KeyOrderESaIS7_IS8_SB_EEEESt10_Select1stISG_ESC_SaISG_EE11_M_put_nodeEPSt13_Rb_tree_nodeISG_E
00000000000952be W _ZNSt8_Rb_treeIN15CSimpleIniTemplIc16SI_GenericNoCaseIcE11SI_ConvertAIcEE5EntryESt4pairIKS6_St8multimapIS6_PKcNS6_8KeyOrderESaIS7_IS8_SB_EEEESt10_Select1stISG_ESC_SaISG_EE12_M_erase_auxESt23_Rb_tree_const_iteratorISG_E
0000000000093a10 W _ZNSt8_Rb_treeIN15CSimpleIniTemplIc16SI_GenericNoCaseIcE11SI_ConvertAIcEE5EntryESt4pairIKS6_St8multimapIS6_PKcNS6_8KeyOrderESaIS7_IS8_SB_EEEESt10_Select1stISG_ESC_SaISG_EE12_M_erase_auxESt23_Rb_tree_const_iteratorISG_ESM_
0000000000095872 W _ZNSt8_Rb_treeIN15CSimpleIniTemplIc16SI_GenericNoCaseIcE11SI_ConvertAIcEE5EntryESt4pairIKS6_St8multimapIS6_PKcNS6_8KeyOrderESaIS7_IS8_SB_EEEESt10_Select1stISG_ESC_SaISG_EE12_M_rightmostEv
0000000000093904 W _ZNSt8_Rb_treeIN15CSimpleIniTemplIc16SI_GenericNoCaseIcE11SI_ConvertAIcEE5EntryESt4pairIKS6_St8multimapIS6_PKcNS6_8KeyOrderESaIS7_IS8_SB_EEEESt10_Select1stISG_ESC_SaISG_EE13_Rb_tree_implISC_Lb1EE13_M_initializeEv
0000000000091c9c W _ZNSt8_Rb_treeIN15CSimpleIniTemplIc16SI_GenericNoCaseIcE11SI_ConvertAIcEE5EntryESt4pairIKS6_St8multimapIS6_PKcNS6_8KeyOrderESaIS7_IS8_SB_EEEESt10_Select1stISG_ESC_SaISG_EE13_Rb_tree_implISC_Lb1EEC1Ev
0000000000091c9c W _ZNSt8_Rb_treeIN15CSimpleIniTemplIc16SI_GenericNoCaseIcE11SI_ConvertAIcEE5EntryESt4pairIKS6_St8multimapIS6_PKcNS6_8KeyOrderESaIS7_IS8_SB_EEEESt10_Select1stISG_ESC_SaISG_EE13_Rb_tree_implISC_Lb1EEC2Ev
000000000008f9c2 W _ZNSt8_Rb_treeIN15CSimpleIniTemplIc16SI_GenericNoCaseIcE11SI_ConvertAIcEE5EntryESt4pairIKS6_St8multimapIS6_PKcNS6_8KeyOrderESaIS7_IS8_SB_EEEESt10_Select1stISG_ESC_SaISG_EE13_Rb_tree_implISC_Lb1EED1Ev
000000000008f9c2 W _ZNSt8_Rb_treeIN15CSimpleIniTemplIc16SI_GenericNoCaseIcE11SI_ConvertAIcEE5EntryESt4pairIKS6_St8multimapIS6_PKcNS6_8KeyOrderESaIS7_IS8_SB_EEEESt10_Select1stISG_ESC_SaISG_EE13_Rb_tree_implISC_Lb1EED2Ev
0000000000095148 W _ZNSt8_Rb_treeIN15CSimpleIniTemplIc16SI_GenericNoCaseIcE11SI_ConvertAIcEE5EntryESt4pairIKS6_St8multimapIS6_PKcNS6_8KeyOrderESaIS7_IS8_SB_EEEESt10_Select1stISG_ESC_SaISG_EE14_M_create_nodeIIRSG_EEEPSt13_Rb_tree_nodeISG_EDpOT_
0000000000095148 W _ZNSt8_Rb_treeIN15CSimpleIniTemplIc16SI_GenericNoCaseIcE11SI_ConvertAIcEE5EntryESt4pairIKS6_St8multimapIS6_PKcNS6_8KeyOrderESaIS7_IS8_SB_EEEESt10_Select1stISG_ESC_SaISG_EE14_M_create_nodeIJRSG_EEEPSt13_Rb_tree_nodeISG_EDpOT_
0000000000094094 W _ZNSt8_Rb_treeIN15CSimpleIniTemplIc16SI_GenericNoCaseIcE11SI_ConvertAIcEE5EntryESt4pairIKS6_St8multimapIS6_PKcNS6_8KeyOrderESaIS7_IS8_SB_EEEESt10_Select1stISG_ESC_SaISG_EE14_M_lower_boundEPSt13_Rb_tree_nodeISG_ESN_RS8_
0000000000091d4e W _ZNSt8_Rb_treeIN15CSimpleIniTemplIc16SI_GenericNoCaseIcE11SI_ConvertAIcEE5EntryESt4pairIKS6_St8multimapIS6_PKcNS6_8KeyOrderESaIS7_IS8_SB_EEEESt10_Select1stISG_ESC_SaISG_EE15_M_destroy_nodeEPSt13_Rb_tree_nodeISG_E
0000000000092a00 W _ZNSt8_Rb_treeIN15CSimpleIniTemplIc16SI_GenericNoCaseIcE11SI_ConvertAIcEE5EntryESt4pairIKS6_St8multimapIS6_PKcNS6_8KeyOrderESaIS7_IS8_SB_EEEESt10_Select1stISG_ESC_SaISG_EE16_M_insert_uniqueIRSG_EES7_ISt17_Rb_tree_iteratorISG_EbEOT_
0000000000093946 W _ZNSt8_Rb_treeIN15CSimpleIniTemplIc16SI_GenericNoCaseIcE11SI_ConvertAIcEE5EntryESt4pairIKS6_St8multimapIS6_PKcNS6_8KeyOrderESaIS7_IS8_SB_EEEESt10_Select1stISG_ESC_SaISG_EE21_M_get_Node_allocatorEv
0000000000094406 W _ZNSt8_Rb_treeIN15CSimpleIniTemplIc16SI_GenericNoCaseIcE11SI_ConvertAIcEE5EntryESt4pairIKS6_St8multimapIS6_PKcNS6_8KeyOrderESaIS7_IS8_SB_EEEESt10_Select1stISG_ESC_SaISG_EE24_M_get_insert_unique_posERS8_
0000000000091e74 W _ZNSt8_Rb_treeIN15CSimpleIniTemplIc16SI_GenericNoCaseIcE11SI_ConvertAIcEE5EntryESt4pairIKS6_St8multimapIS6_PKcNS6_8KeyOrderESaIS7_IS8_SB_EEEESt10_Select1stISG_ESC_SaISG_EE3endEv
0000000000092680 W _ZNSt8_Rb_treeIN15CSimpleIniTemplIc16SI_GenericNoCaseIcE11SI_ConvertAIcEE5EntryESt4pairIKS6_St8multimapIS6_PKcNS6_8KeyOrderESaIS7_IS8_SB_EEEESt10_Select1stISG_ESC_SaISG_EE4findERS8_
0000000000091e4a W _ZNSt8_Rb_treeIN15CSimpleIniTemplIc16SI_GenericNoCaseIcE11SI_ConvertAIcEE5EntryESt4pairIKS6_St8multimapIS6_PKcNS6_8KeyOrderESaIS7_IS8_SB_EEEESt10_Select1stISG_ESC_SaISG_EE5beginEv
0000000000094e7e W _ZNSt8_Rb_treeIN15CSimpleIniTemplIc16SI_GenericNoCaseIcE11SI_ConvertAIcEE5EntryESt4pairIKS6_St8multimapIS6_PKcNS6_8KeyOrderESaIS7_IS8_SB_EEEESt10_Select1stISG_ESC_SaISG_EE5clearEv
000000000009481e W _ZNSt8_Rb_treeIN15CSimpleIniTemplIc16SI_GenericNoCaseIcE11SI_ConvertAIcEE5EntryESt4pairIKS6_St8multimapIS6_PKcNS6_8KeyOrderESaIS7_IS8_SB_EEEESt10_Select1stISG_ESC_SaISG_EE5eraseB5cxx11ESt17_Rb_tree_iteratorISG_E
0000000000094f42 W _ZNSt8_Rb_treeIN15CSimpleIniTemplIc16SI_GenericNoCaseIcE11SI_ConvertAIcEE5EntryESt4pairIKS6_St8multimapIS6_PKcNS6_8KeyOrderESaIS7_IS8_SB_EEEESt10_Select1stISG_ESC_SaISG_EE5eraseB5cxx11ESt23_Rb_tree_const_iteratorISG_E
0000000000091e9e W _ZNSt8_Rb_treeIN15CSimpleIniTemplIc16SI_GenericNoCaseIcE11SI_ConvertAIcEE5EntryESt4pairIKS6_St8multimapIS6_PKcNS6_8KeyOrderESaIS7_IS8_SB_EEEESt10_Select1stISG_ESC_SaISG_EE5eraseB5cxx11ESt23_Rb_tree_const_iteratorISG_ESM_
0000000000094082 W _ZNSt8_Rb_treeIN15CSimpleIniTemplIc16SI_GenericNoCaseIcE11SI_ConvertAIcEE5EntryESt4pairIKS6_St8multimapIS6_PKcNS6_8KeyOrderESaIS7_IS8_SB_EEEESt10_Select1stISG_ESC_SaISG_EE6_M_endEv
0000000000095016 W _ZNSt8_Rb_treeIN15CSimpleIniTemplIc16SI_GenericNoCaseIcE11SI_ConvertAIcEE5EntryESt4pairIKS6_St8multimapIS6_PKcNS6_8KeyOrderESaIS7_IS8_SB_EEEESt10_Select1stISG_ESC_SaISG_EE6_S_keyEPKSt13_Rb_tree_nodeISG_E
0000000000094121 W _ZNSt8_Rb_treeIN15CSimpleIniTemplIc16SI_GenericNoCaseIcE11SI_ConvertAIcEE5EntryESt4pairIKS6_St8multimapIS6_PKcNS6_8KeyOrderESaIS7_IS8_SB_EEEESt10_Select1stISG_ESC_SaISG_EE6_S_keyEPKSt18_Rb_tree_node_base
0000000000095860 W _ZNSt8_Rb_treeIN15CSimpleIniTemplIc16SI_GenericNoCaseIcE11SI_ConvertAIcEE5EntryESt4pairIKS6_St8multimapIS6_PKcNS6_8KeyOrderESaIS7_IS8_SB_EEEESt10_Select1stISG_ESC_SaISG_EE7_M_rootEv
0000000000095fb9 W _ZNSt8_Rb_treeIN15CSimpleIniTemplIc16SI_GenericNoCaseIcE11SI_ConvertAIcEE5EntryESt4pairIKS6_St8multimapIS6_PKcNS6_8KeyOrderESaIS7_IS8_SB_EEEESt10_Select1stISG_ESC_SaISG_EE7_S_leftEPKSt18_Rb_tree_node_base
0000000000091d3c W _ZNSt8_Rb_treeIN15CSimpleIniTemplIc16SI_GenericNoCaseIcE11SI_ConvertAIcEE5EntryESt4pairIKS6_St8multimapIS6_PKcNS6_8KeyOrderESaIS7_IS8_SB_EEEESt10_Select1stISG_ESC_SaISG_EE7_S_leftEPSt18_Rb_tree_node_base
0000000000090642 W _ZNSt8_Rb_treeIN15CSimpleIniTemplIc16SI_GenericNoCaseIcE11SI_ConvertAIcEE5EntryESt4pairIKS6_St8multimapIS6_PKcNS6_8KeyOrderESaIS7_IS8_SB_EEEESt10_Select1stISG_ESC_SaISG_EE8_M_beginEv
00000000000905de W _ZNSt8_Rb_treeIN15CSimpleIniTemplIc16SI_GenericNoCaseIcE11SI_ConvertAIcEE5EntryESt4pairIKS6_St8multimapIS6_PKcNS6_8KeyOrderESaIS7_IS8_SB_EEEESt10_Select1stISG_ESC_SaISG_EE8_M_eraseEPSt13_Rb_tree_nodeISG_E
0000000000095fcb W _ZNSt8_Rb_treeIN15CSimpleIniTemplIc16SI_GenericNoCaseIcE11SI_ConvertAIcEE5EntryESt4pairIKS6_St8multimapIS6_PKcNS6_8KeyOrderESaIS7_IS8_SB_EEEESt10_Select1stISG_ESC_SaISG_EE8_S_rightEPKSt18_Rb_tree_node_base
0000000000091d2a W _ZNSt8_Rb_treeIN15CSimpleIniTemplIc16SI_GenericNoCaseIcE11SI_ConvertAIcEE5EntryESt4pairIKS6_St8multimapIS6_PKcNS6_8KeyOrderESaIS7_IS8_SB_EEEESt10_Select1stISG_ESC_SaISG_EE8_S_rightEPSt18_Rb_tree_node_base
000000000009591c W _ZNSt8_Rb_treeIN15CSimpleIniTemplIc16SI_GenericNoCaseIcE11SI_ConvertAIcEE5EntryESt4pairIKS6_St8multimapIS6_PKcNS6_8KeyOrderESaIS7_IS8_SB_EEEESt10_Select1stISG_ESC_SaISG_EE8_S_valueEPKSt13_Rb_tree_nodeISG_E
0000000000095042 W _ZNSt8_Rb_treeIN15CSimpleIniTemplIc16SI_GenericNoCaseIcE11SI_ConvertAIcEE5EntryESt4pairIKS6_St8multimapIS6_PKcNS6_8KeyOrderESaIS7_IS8_SB_EEEESt10_Select1stISG_ESC_SaISG_EE8_S_valueEPKSt18_Rb_tree_node_base
00000000000905aa W _ZNSt8_Rb_treeIN15CSimpleIniTemplIc16SI_GenericNoCaseIcE11SI_ConvertAIcEE5EntryESt4pairIKS6_St8multimapIS6_PKcNS6_8KeyOrderESaIS7_IS8_SB_EEEESt10_Select1stISG_ESC_SaISG_EEC1Ev
00000000000905aa W _ZNSt8_Rb_treeIN15CSimpleIniTemplIc16SI_GenericNoCaseIcE11SI_ConvertAIcEE5EntryESt4pairIKS6_St8multimapIS6_PKcNS6_8KeyOrderESaIS7_IS8_SB_EEEESt10_Select1stISG_ESC_SaISG_EEC2Ev
000000000008f9dc W _ZNSt8_Rb_treeIN15CSimpleIniTemplIc16SI_GenericNoCaseIcE11SI_ConvertAIcEE5EntryESt4pairIKS6_St8multimapIS6_PKcNS6_8KeyOrderESaIS7_IS8_SB_EEEESt10_Select1stISG_ESC_SaISG_EED1Ev
000000000008f9dc W _ZNSt8_Rb_treeIN15CSimpleIniTemplIc16SI_GenericNoCaseIcE11SI_ConvertAIcEE5EntryESt4pairIKS6_St8multimapIS6_PKcNS6_8KeyOrderESaIS7_IS8_SB_EEEESt10_Select1stISG_ESC_SaISG_EED2Ev
                 U _ZNSt8__detail15_List_node_base11_M_transferEPS0_S1_
                 U _ZNSt8__detail15_List_node_base4swapERS0_S1_
                 U _ZNSt8__detail15_List_node_base7_M_hookEPS0_
                 U _ZNSt8__detail15_List_node_base9_M_unhookEv
                 U _ZNSt8ios_base4InitC1Ev
                 U _ZNSt8ios_base4InitD1Ev
0000000000090d6e W _ZNSt8multimapIN15CSimpleIniTemplIc16SI_GenericNoCaseIcE11SI_ConvertAIcEE5EntryEPKcNS6_8KeyOrderESaISt4pairIKS6_S8_EEE3endEv
0000000000090d48 W _ZNSt8multimapIN15CSimpleIniTemplIc16SI_GenericNoCaseIcE11SI_ConvertAIcEE5EntryEPKcNS6_8KeyOrderESaISt4pairIKS6_S8_EEE4findERSB_
0000000000092d14 W _ZNSt8multimapIN15CSimpleIniTemplIc16SI_GenericNoCaseIcE11SI_ConvertAIcEE5EntryEPKcNS6_8KeyOrderESaISt4pairIKS6_S8_EEE5beginEv
0000000000092cd4 W _ZNSt8multimapIN15CSimpleIniTemplIc16SI_GenericNoCaseIcE11SI_ConvertAIcEE5EntryEPKcNS6_8KeyOrderESaISt4pairIKS6_S8_EEE5eraseB5cxx11ESt17_Rb_tree_iteratorISC_E
0000000000091302 W _ZNSt8multimapIN15CSimpleIniTemplIc16SI_GenericNoCaseIcE11SI_ConvertAIcEE5EntryEPKcNS6_8KeyOrderESaISt4pairIKS6_S8_EEE6insertIRSC_vEESt17_Rb_tree_iteratorISC_EOT_
0000000000090cb8 W _ZNSt8multimapIN15CSimpleIniTemplIc16SI_GenericNoCaseIcE11SI_ConvertAIcEE5EntryEPKcNS6_8KeyOrderESaISt4pairIKS6_S8_EEEC1EOSE_
00000000000962a4 W _ZNSt8multimapIN15CSimpleIniTemplIc16SI_GenericNoCaseIcE11SI_ConvertAIcEE5EntryEPKcNS6_8KeyOrderESaISt4pairIKS6_S8_EEEC1ERKSE_
0000000000090c18 W _ZNSt8multimapIN15CSimpleIniTemplIc16SI_GenericNoCaseIcE11SI_ConvertAIcEE5EntryEPKcNS6_8KeyOrderESaISt4pairIKS6_S8_EEEC1Ev
0000000000090cb8 W _ZNSt8multimapIN15CSimpleIniTemplIc16SI_GenericNoCaseIcE11SI_ConvertAIcEE5EntryEPKcNS6_8KeyOrderESaISt4pairIKS6_S8_EEEC2EOSE_
00000000000962a4 W _ZNSt8multimapIN15CSimpleIniTemplIc16SI_GenericNoCaseIcE11SI_ConvertAIcEE5EntryEPKcNS6_8KeyOrderESaISt4pairIKS6_S8_EEEC2ERKSE_
0000000000090c18 W _ZNSt8multimapIN15CSimpleIniTemplIc16SI_GenericNoCaseIcE11SI_ConvertAIcEE5EntryEPKcNS6_8KeyOrderESaISt4pairIKS6_S8_EEEC2Ev
000000000008fd14 W _ZNSt8multimapIN15CSimpleIniTemplIc16SI_GenericNoCaseIcE11SI_ConvertAIcEE5EntryEPKcNS6_8KeyOrderESaISt4pairIKS6_S8_EEED1Ev
000000000008fd14 W _ZNSt8multimapIN15CSimpleIniTemplIc16SI_GenericNoCaseIcE11SI_ConvertAIcEE5EntryEPKcNS6_8KeyOrderESaISt4pairIKS6_S8_EEED2Ev
0000000000083edb W _ZSt10_ConstructISsISsEEvPT_DpOT0_
0000000000083edb W _ZSt10_ConstructISsJSsEEvPT_DpOT0_
000000000009d738 W _ZSt10__distanceIN9__gnu_cxx17__normal_iteratorIPwSbIwSt11char_traitsIwESaIwEEEEENSt15iterator_traitsIT_E15difference_typeES9_S9_St26random_access_iterator_tag
0000000000094c55 W _ZSt11__addressofIKN15CSimpleIniTemplIc16SI_GenericNoCaseIcE11SI_ConvertAIcEE5EntryEEPT_RS8_
000000000009577b W _ZSt11__addressofIKSt4pairIKN15CSimpleIniTemplIc16SI_GenericNoCaseIcE11SI_ConvertAIcEE5EntryEPKcEEPT_RSD_
00000000000953f3 W _ZSt11__addressofIKSt4pairIKN15CSimpleIniTemplIc16SI_GenericNoCaseIcE11SI_ConvertAIcEE5EntryESt8multimapIS7_PKcNS7_8KeyOrderESaIS0_IS8_SB_EEEEEPT_RSI_
0000000000091ef1 W _ZSt11__addressofIN15CSimpleIniTemplIc16SI_GenericNoCaseIcE11SI_ConvertAIcEE5EntryEEPT_RS7_
0000000000083cd8 W _ZSt11__addressofISsEPT_RS0_
0000000000092c79 W _ZSt11__addressofISt4pairIKN15CSimpleIniTemplIc16SI_GenericNoCaseIcE11SI_ConvertAIcEE5EntryEPKcEEPT_RSC_
0000000000092adf W _ZSt11__addressofISt4pairIKN15CSimpleIniTemplIc16SI_GenericNoCaseIcE11SI_ConvertAIcEE5EntryESt8multimapIS7_PKcNS7_8KeyOrderESaIS0_IS8_SB_EEEEEPT_RSH_
000000000009736e W _ZSt12__miter_baseIN9__gnu_cxx17__normal_iteratorIPP13TDeviceClientSt6vectorIS3_SaIS3_EEEEENSt11_Miter_baseIT_E13iterator_typeESA_
0000000000097775 W _ZSt12__miter_baseISt13move_iteratorIPP13TDeviceClientEENSt11_Miter_baseIT_E13iterator_typeES6_
0000000000097580 W _ZSt12__niter_baseIN9__gnu_cxx17__normal_iteratorIPP13TDeviceClientSt6vectorIS3_SaIS3_EEEEENSt11_Niter_baseIT_E13iterator_typeESA_
0000000000097801 W _ZSt12__niter_baseIPP13TDeviceClientENSt11_Niter_baseIT_E13iterator_typeES4_
000000000009759a W _ZSt13__copy_move_aILb1EPP13TDeviceClientS2_ET1_T0_S4_S3_
0000000000097388 W _ZSt14__copy_move_a2ILb1EN9__gnu_cxx17__normal_iteratorIPP13TDeviceClientSt6vectorIS3_SaIS3_EEEES8_ET1_T0_SA_S9_
000000000009778f W _ZSt14__copy_move_a2ILb1EPP13TDeviceClientS2_ET1_T0_S4_S3_
                 U _ZSt17__throw_bad_allocv
                 U _ZSt18_Rb_tree_decrementPSt18_Rb_tree_node_base
                 U _ZSt18_Rb_tree_incrementPKSt18_Rb_tree_node_base
                 U _ZSt18_Rb_tree_incrementPSt18_Rb_tree_node_base
0000000000097639 W _ZSt18uninitialized_copyISt13move_iteratorIPP13TDeviceClientES3_ET0_T_S6_S5_
0000000000083d55 W _ZSt18uninitialized_copyISt13move_iteratorIPSsES1_ET0_T_S4_S3_
0000000000058d63 W _ZSt19__iterator_categoryIN9__gnu_cxx17__normal_iteratorIPcSsEEENSt15iterator_traitsIT_E17iterator_categoryERKS5_
000000000009d72e W _ZSt19__iterator_categoryIN9__gnu_cxx17__normal_iteratorIPwSbIwSt11char_traitsIwESaIwEEEEENSt15iterator_traitsIT_E17iterator_categoryERKS9_
                 U _ZSt19__throw_logic_errorPKc
                 U _ZSt20__throw_length_errorPKc
                 U _ZSt20__throw_system_errori
                 U _ZSt21__throw_runtime_errorPKc
0000000000097541 W _ZSt22__uninitialized_copy_aISt13move_iteratorIPP13TDeviceClientES3_S2_ET0_T_S6_S5_RSaIT1_E
0000000000083c77 W _ZSt22__uninitialized_copy_aISt13move_iteratorIPSsES1_SsET0_T_S4_S3_RSaIT1_E
                 U _ZSt28_Rb_tree_rebalance_for_erasePSt18_Rb_tree_node_baseRS_
                 U _ZSt29_Rb_tree_insert_and_rebalancebPSt18_Rb_tree_node_baseS0_RS_
000000000009751c W _ZSt32__make_move_if_noexcept_iteratorIPP13TDeviceClientSt13move_iteratorIS2_EET0_T_
0000000000083c52 W _ZSt32__make_move_if_noexcept_iteratorIPSsSt13move_iteratorIS0_EET0_T_
0000000000097312 W _ZSt34__uninitialized_move_if_noexcept_aIPP13TDeviceClientS2_SaIS1_EET0_T_S5_S4_RT1_
0000000000083a5c W _ZSt34__uninitialized_move_if_noexcept_aIPSsS0_SaISsEET0_T_S3_S2_RT1_
0000000000083be4 W _ZSt3maxImERKT_S2_S2_
000000000009772f W _ZSt4copyISt13move_iteratorIPP13TDeviceClientES3_ET0_T_S6_S5_
                 U _ZSt4cout
                 U _ZSt4endlIcSt11char_traitsIcEERSt13basic_ostreamIT_T0_ES6_
00000000000970bb W _ZSt4moveIN9__gnu_cxx17__normal_iteratorIPP13TDeviceClientSt6vectorIS3_SaIS3_EEEES8_ET0_T_SA_S9_
000000000009262a W _ZSt4moveIRN15CSimpleIniTemplIc16SI_GenericNoCaseIcE11SI_ConvertAIcEE5EntryEEONSt16remove_referenceIT_E4typeEOS9_
000000000009282c W _ZSt4moveIRSaISt13_Rb_tree_nodeISt4pairIKN15CSimpleIniTemplIc16SI_GenericNoCaseIcE11SI_ConvertAIcEE5EntryEPKcEEEEONSt16remove_referenceIT_E4typeEOSH_
000000000008140f W _ZSt4moveIRSsEONSt16remove_referenceIT_E4typeEOS2_
0000000000094b7e W _ZSt4moveIRSt4listIN15CSimpleIniTemplIc16SI_GenericNoCaseIcE11SI_ConvertAIcEE5EntryESaIS7_EEEONSt16remove_referenceIT_E4typeEOSC_
0000000000090ca9 W _ZSt4moveIRSt8_Rb_treeIN15CSimpleIniTemplIc16SI_GenericNoCaseIcE11SI_ConvertAIcEE5EntryESt4pairIKS7_PKcESt10_Select1stISC_ENS7_8KeyOrderESaISC_EEEONSt16remove_referenceIT_E4typeEOSK_
0000000000058efd W _ZSt4moveIRcEONSt16remove_referenceIT_E4typeEOS2_
0000000000058f0b W _ZSt4swapIcEvRT_S1_
0000000000094028 W _ZSt7forwardIN15CSimpleIniTemplIc16SI_GenericNoCaseIcE11SI_ConvertAIcEE5EntryEEOT_RNSt16remove_referenceIS7_E4typeE
000000000008fdbc W _ZSt7forwardIPKcEOT_RNSt16remove_referenceIS2_E4typeE
0000000000095401 W _ZSt7forwardIRKN15CSimpleIniTemplIc16SI_GenericNoCaseIcE11SI_ConvertAIcEE5EntryEEOT_RNSt16remove_referenceIS9_E4typeE
0000000000096b6b W _ZSt7forwardIRKP13TDeviceClientEOT_RNSt16remove_referenceIS4_E4typeE
00000000000834ef W _ZSt7forwardIRKSsEOT_RNSt16remove_referenceIS2_E4typeE
000000000009664d W _ZSt7forwardIRKSt4pairIKN15CSimpleIniTemplIc16SI_GenericNoCaseIcE11SI_ConvertAIcEE5EntryEPKcEEOT_RNSt16remove_referenceISE_E4typeE
000000000008fd2e W _ZSt7forwardIRN15CSimpleIniTemplIc16SI_GenericNoCaseIcE11SI_ConvertAIcEE5EntryEEOT_RNSt16remove_referenceIS8_E4typeE
000000000009486e W _ZSt7forwardIRPSt13_Rb_tree_nodeISt4pairIKN15CSimpleIniTemplIc16SI_GenericNoCaseIcE11SI_ConvertAIcEE5EntryEPKcEEEOT_RNSt16remove_referenceISG_E4typeE
000000000009436a W _ZSt7forwardIRPSt13_Rb_tree_nodeISt4pairIKN15CSimpleIniTemplIc16SI_GenericNoCaseIcE11SI_ConvertAIcEE5EntryESt8multimapIS8_PKcNS8_8KeyOrderESaIS1_IS9_SC_EEEEEEOT_RNSt16remove_referenceISL_E4typeE
00000000000943bb W _ZSt7forwardIRPSt18_Rb_tree_node_baseEOT_RNSt16remove_referenceIS3_E4typeE
00000000000912f4 W _ZSt7forwardIRSt4pairIKN15CSimpleIniTemplIc16SI_GenericNoCaseIcE11SI_ConvertAIcEE5EntryEPKcEEOT_RNSt16remove_referenceISD_E4typeE
0000000000090ce8 W _ZSt7forwardIRSt4pairIKN15CSimpleIniTemplIc16SI_GenericNoCaseIcE11SI_ConvertAIcEE5EntryESt8multimapIS7_PKcNS7_8KeyOrderESaIS0_IS8_SB_EEEEEOT_RNSt16remove_referenceISI_E4typeE
0000000000083ecd W _ZSt7forwardISsEOT_RNSt16remove_referenceIS0_E4typeE
00000000000929a2 W _ZSt7forwardISt17_Rb_tree_iteratorISt4pairIKN15CSimpleIniTemplIc16SI_GenericNoCaseIcE11SI_ConvertAIcEE5EntryESt8multimapIS8_PKcNS8_8KeyOrderESaIS1_IS9_SC_EEEEEEOT_RNSt16remove_referenceISJ_E4typeE
000000000008fd3c W _ZSt7forwardISt8multimapIN15CSimpleIniTemplIc16SI_GenericNoCaseIcE11SI_ConvertAIcEE5EntryEPKcNS7_8KeyOrderESaISt4pairIKS7_S9_EEEEOT_RNSt16remove_referenceISG_E4typeE
00000000000929b0 W _ZSt7forwardIbEOT_RNSt16remove_referenceIS0_E4typeE
0000000000058d29 W _ZSt7reverseIN9__gnu_cxx17__normal_iteratorIPcSsEEEvT_S4_
0000000000079b97 W _ZSt7toupperIcET_S0_RKSt6locale
00000000000971b2 W _ZSt8_DestroyIPP13TDeviceClientEvT_S3_
0000000000096dec W _ZSt8_DestroyIPP13TDeviceClientS1_EvT_S3_RSaIT0_E
00000000000838d6 W _ZSt8_DestroyIPSsEvT_S1_
00000000000835fc W _ZSt8_DestroyIPSsSsEvT_S1_RSaIT0_E
0000000000083ce6 W _ZSt8_DestroyISsEvPT_
000000000009d681 W _ZSt8distanceIN9__gnu_cxx17__normal_iteratorIPwSbIwSt11char_traitsIwESaIwEEEEENSt15iterator_traitsIT_E15difference_typeES9_S9_
0000000000058d6d W _ZSt9__reverseIN9__gnu_cxx17__normal_iteratorIPcSsEEEvT_S4_St26random_access_iterator_tag
0000000000058e80 W _ZSt9iter_swapIN9__gnu_cxx17__normal_iteratorIPcSsEES3_EvT_T0_
                 U _ZSt9use_facetISt5ctypeIcEERKT_RKSt6locale
0000000000083f23 W _ZSteqIPSsEbRKSt13move_iteratorIT_ES5_
000000000007ba4d W _ZSteqIcEN9__gnu_cxx11__enable_ifIXsrSt9__is_charIT_E7__valueEbE6__typeERKSbIS3_St11char_traitsIS3_ESaIS3_EESC_
000000000009d5e7 W _ZSteqIcEbRKSaIT_ES3_
000000000007e652 W _ZSteqIcSt11char_traitsIcESaIcEEbPKT_RKSbIS3_T0_T1_E
0000000000079b6d W _ZSteqIcSt11char_traitsIcESaIcEEbRKSbIT_T0_T1_EPKS3_
                 U _ZStlsISt11char_traitsIcEERSt13basic_ostreamIcT_ES5_PKc
                 U _ZStlsISt11char_traitsIcEERSt13basic_ostreamIcT_ES5_c
0000000000083e67 W _ZStneIPSsEbRKSt13move_iteratorIT_ES5_
000000000007e62a W _ZStneIcSt11char_traitsIcESaIcEEbPKT_RKSbIS3_T0_T1_E
000000000007e602 W _ZStneIcSt11char_traitsIcESaIcEEbRKSbIT_T0_T1_ES8_
0000000000082e36 W _ZStorSt13_Ios_OpenmodeS_
000000000008141d W _ZStplIcSt11char_traitsIcESaIcEESbIT_T0_T1_EOS6_S7_
000000000007b9a2 W _ZStplIcSt11char_traitsIcESaIcEESbIT_T0_T1_ERKS6_PKS3_
                 U _ZStrsIcSt11char_traitsIcEERSt13basic_istreamIT_T0_ES6_RS3_
00000000002d9350 V _ZTI10TSDKEeprom
00000000002d9400 V _ZTI10TSDKFilter
00000000002d9220 V _ZTI11TSDKControl
00000000002d94b0 V _ZTI11TSDKFlipper
00000000002d95d0 V _ZTI11TSDKGrating
00000000002d97d0 V _ZTI11TSDKShutter
00000000002d99c0 V _ZTI11TUSBControl
00000000002d8660 V _ZTI13TDeviceClient
00000000002d90e0 V _ZTI13TDeviceServer
00000000002d8dd0 V _ZTI13TI2CInterface
00000000002d91b0 V _ZTI13TSDKAccessory
00000000002d72e0 V _ZTI13TZolixControl
00000000002d7840 V _ZTI13TZolixFactory
00000000002d87b0 V _ZTI13TZolixShutter
00000000002d9140 V _ZTI14TGlobalControl
00000000002d8f00 V _ZTI14TI2CController
00000000002d9720 V _ZTI14TSDKOutputSlit
00000000002d9960 V _ZTI14TSDKWavelength
00000000002d70a0 V _ZTI14TZolixHardware
00000000002d8fe0 V _ZTI15TSDKFocusMirror
00000000002d9650 V _ZTI16TSDKI2CInterface
00000000002d9a30 V _ZTI16TUSBI2CInterface
00000000002d7360 V _ZTI16TZolixControlI2C
00000000002d73e0 V _ZTI16TZolixControlIPC
00000000002d72c0 V _ZTI16TZolixControlUSB
00000000002d7130 V _ZTI16TZolixOmniLambda
00000000002d8600 V _ZTI16TZolixWavelength
00000000002d8cd0 V _ZTI17ISpectrographIris
00000000002d7ba0 V _ZTI17ISpectrographSlit
00000000002d74f0 V _ZTI17TAndorZolixEeprom
00000000002d7a10 V _ZTI17TBusyDeviceServer
00000000002d92d0 V _ZTI18TDetectorInterface
00000000002d8410 V _ZTI19ISpectrographEEPROM
00000000002d79f0 V _ZTI19ISpectrographFilter
00000000002d8910 V _ZTI19TSpectrographDevice
00000000002d71e0 V _ZTI19TZolixOmniLambdaCom
00000000002d7d10 V _ZTI20ISpectrographFlipper
00000000002d8010 V _ZTI20ISpectrographGrating
00000000002d87d0 V _ZTI20ISpectrographShutter
00000000002d92b0 V _ZTI21TSDKDetectorInterface
00000000002d7050 V _ZTI21TSpectrographHardware
00000000002d82d0 V _ZTI22ISpectrographAccessory
00000000002d7720 V _ZTI22TAndorZolixVerneEeprom
00000000002d7000 V _ZTI22TSpectrographException
00000000002d8cb0 V _ZTI22TSpectrographZolixIris
00000000002d7b80 V _ZTI22TSpectrographZolixSlit
00000000002d8640 V _ZTI23ISpectrographWavelength
00000000002d8db0 V _ZTI23TMCDI2CInterfaceWrapper
00000000002d8ee0 V _ZTI23TSpectrographI2CControl
00000000002d81e0 V _ZTI24ISpectrographFocusMirror
00000000002d83f0 V _ZTI24TSpectrographZolixEeprom
00000000002d79d0 V _ZTI24TSpectrographZolixFilter
00000000002d88f0 V _ZTI24TZolixSpectrographDevice
00000000002d8e20 V _ZTI25TSpectrograph303iHardware
00000000002d7cf0 V _ZTI25TSpectrographZolixFlipper
00000000002d7ff0 V _ZTI25TSpectrographZolixGrating
00000000002d7860 V _ZTI26ISpectrographDeviceFactory
00000000002d7190 V _ZTI26TAndorOnly_ZolixOmniLambda
00000000002d8af0 V _ZTI26TZSpectrographWaveStrategy
00000000002d82b0 V _ZTI27TSpectrographZolixAccessory
00000000002d8aa0 V _ZTI28TSpectrographZolixStepTurret
00000000002d7600 V _ZTI29TAndorZolixSpectrographEeprom
00000000002d81c0 V _ZTI29TSpectrographZolixFocusMirror
00000000002d8ae0 V _ZTI29TZSpectrographGratingStrategy
00000000002d8ba0 V _ZTI33TZSpectrographWaveStrategyBuiltIn
00000000002d8b60 V _ZTI36TZSpectrographGratingStrategyBuiltIn
00000000002d7dd0 V _ZTI41TSpectrographZolixFlipperWithUserPosition
00000000002d98a0 V _ZTI8TSDKSlit
00000000002d9070 V _ZTIN15CSimpleIniTemplIc16SI_GenericNoCaseIcE11SI_ConvertAIcEE10FileWriterE
00000000002d9090 V _ZTIN15CSimpleIniTemplIc16SI_GenericNoCaseIcE11SI_ConvertAIcEE12OutputWriterE
                 U _ZTISt9exception
00000000000b8ab6 V _ZTS10TSDKEeprom
00000000000b8ac4 V _ZTS10TSDKFilter
00000000000b8a6a V _ZTS11TSDKControl
00000000000b8ad2 V _ZTS11TSDKFlipper
00000000000b8ae1 V _ZTS11TSDKGrating
00000000000b8b22 V _ZTS11TSDKShutter
00000000000b8bb5 V _ZTS11TUSBControl
00000000000b84c0 V _ZTS13TDeviceClient
00000000000b8930 V _ZTS13TDeviceServer
00000000000b8770 V _ZTS13TI2CInterface
00000000000b8a00 V _ZTS13TSDKAccessory
00000000000b7e60 V _ZTS13TZolixControl
00000000000b81b0 V _ZTS13TZolixFactory
00000000000b84e0 V _ZTS13TZolixShutter
00000000000b89e0 V _ZTS14TGlobalControl
00000000000b87d0 V _ZTS14TI2CController
00000000000b8b10 V _ZTS14TSDKOutputSlit
00000000000b8b50 V _ZTS14TSDKWavelength
00000000000b72a0 V _ZTS14TZolixHardware
00000000000b87f0 V _ZTS15TSDKFocusMirror
00000000000b8af0 V _ZTS16TSDKI2CInterface
00000000000b8bd0 V _ZTS16TUSBI2CInterface
00000000000b7e80 V _ZTS16TZolixControlI2C
00000000000b7ea0 V _ZTS16TZolixControlIPC
00000000000b7e40 V _ZTS16TZolixControlUSB
00000000000b7ce0 V _ZTS16TZolixOmniLambda
00000000000b8480 V _ZTS16TZolixWavelength
00000000000b86d0 V _ZTS17ISpectrographIris
00000000000b8270 V _ZTS17ISpectrographSlit
00000000000b7f70 V _ZTS17TAndorZolixEeprom
00000000000b8230 V _ZTS17TBusyDeviceServer
00000000000b8aa0 V _ZTS18TDetectorInterface
00000000000b8450 V _ZTS19ISpectrographEEPROM
00000000000b8210 V _ZTS19ISpectrographFilter
00000000000b8560 V _ZTS19TSpectrographDevice
00000000000b7e20 V _ZTS19TZolixOmniLambdaCom
00000000000b82c0 V _ZTS20ISpectrographFlipper
00000000000b8360 V _ZTS20ISpectrographGrating
00000000000b84f0 V _ZTS20ISpectrographShutter
00000000000b8a80 V _ZTS21TSDKDetectorInterface
00000000000b7230 V _ZTS21TSpectrographHardware
00000000000b8410 V _ZTS22ISpectrographAccessory
00000000000b8190 V _ZTS22TAndorZolixVerneEeprom
00000000000b70b0 V _ZTS22TSpectrographException
00000000000b86b0 V _ZTS22TSpectrographZolixIris
00000000000b8250 V _ZTS22TSpectrographZolixSlit
00000000000b84a0 V _ZTS23ISpectrographWavelength
00000000000b8750 V _ZTS23TMCDI2CInterfaceWrapper
00000000000b87b0 V _ZTS23TSpectrographI2CControl
00000000000b83c0 V _ZTS24ISpectrographFocusMirror
00000000000b8430 V _ZTS24TSpectrographZolixEeprom
00000000000b81f0 V _ZTS24TSpectrographZolixFilter
00000000000b8540 V _ZTS24TZolixSpectrographDevice
00000000000b8790 V _ZTS25TSpectrograph303iHardware
00000000000b82a0 V _ZTS25TSpectrographZolixFlipper
00000000000b8340 V _ZTS25TSpectrographZolixGrating
00000000000b81c0 V _ZTS26ISpectrographDeviceFactory
00000000000b7d00 V _ZTS26TAndorOnly_ZolixOmniLambda
00000000000b85e0 V _ZTS26TZSpectrographWaveStrategy
00000000000b83f0 V _ZTS27TSpectrographZolixAccessory
00000000000b8590 V _ZTS28TSpectrographZolixStepTurret
00000000000b8120 V _ZTS29TAndorZolixSpectrographEeprom
00000000000b83a0 V _ZTS29TSpectrographZolixFocusMirror
00000000000b85c0 V _ZTS29TZSpectrographGratingStrategy
00000000000b8680 V _ZTS33TZSpectrographWaveStrategyBuiltIn
00000000000b8640 V _ZTS36TZSpectrographGratingStrategyBuiltIn
00000000000b8300 V _ZTS41TSpectrographZolixFlipperWithUserPosition
00000000000b8b32 V _ZTS8TSDKSlit
00000000000b8860 V _ZTSN15CSimpleIniTemplIc16SI_GenericNoCaseIcE11SI_ConvertAIcEE10FileWriterE
00000000000b88c0 V _ZTSN15CSimpleIniTemplIc16SI_GenericNoCaseIcE11SI_ConvertAIcEE12OutputWriterE
00000000002d92e0 V _ZTV10TSDKEeprom
00000000002d9380 V _ZTV10TSDKFilter
00000000002d91e0 V _ZTV11TSDKControl
00000000002d9420 V _ZTV11TSDKFlipper
00000000002d94e0 V _ZTV11TSDKGrating
00000000002d9740 V _ZTV11TSDKShutter
00000000002d9980 V _ZTV11TUSBControl
00000000002d85c0 V _ZTV13TDeviceClient
00000000002d90a0 V _ZTV13TDeviceServer
00000000002d8d60 V _ZTV13TI2CInterface
00000000002d9160 V _ZTV13TSDKAccessory
00000000002d7260 V _ZTV13TZolixControl
00000000002d7740 V _ZTV13TZolixFactory
00000000002d8680 V _ZTV13TZolixShutter
00000000002d9100 V _ZTV14TGlobalControl
00000000002d8ea0 V _ZTV14TI2CController
00000000002d9680 V _ZTV14TSDKOutputSlit
00000000002d98c0 V _ZTV14TSDKWavelength
00000000002d7060 V _ZTV14TZolixHardware
00000000002d8f20 V _ZTV15TSDKFocusMirror
00000000002d9600 V _ZTV16TSDKI2CInterface
00000000002d99e0 V _ZTV16TUSBI2CInterface
00000000002d7300 V _ZTV16TZolixControlI2C
00000000002d7380 V _ZTV16TZolixControlIPC
00000000002d7200 V _ZTV16TZolixControlUSB
00000000002d70e0 V _ZTV16TZolixOmniLambda
00000000002d8440 V _ZTV16TZolixWavelength
00000000002d8c40 V _ZTV17ISpectrographIris
00000000002d7ae0 V _ZTV17ISpectrographSlit
00000000002d7400 V _ZTV17TAndorZolixEeprom
00000000002d7980 V _ZTV17TBusyDeviceServer
00000000002d9280 V _ZTV18TDetectorInterface
00000000002d8380 V _ZTV19ISpectrographEEPROM
00000000002d7900 V _ZTV19ISpectrographFilter
00000000002d8880 V _ZTV19TSpectrographDevice
00000000002d71c0 V _ZTV19TZolixOmniLambdaCom
00000000002d7c60 V _ZTV20ISpectrographFlipper
00000000002d7f00 V _ZTV20ISpectrographGrating
00000000002d8720 V _ZTV20ISpectrographShutter
00000000002d9240 V _ZTV21TSDKDetectorInterface
00000000002d7020 V _ZTV21TSpectrographHardware
00000000002d8260 V _ZTV22ISpectrographAccessory
00000000002d7620 V _ZTV22TAndorZolixVerneEeprom
00000000002d8bc0 V _ZTV22TSpectrographZolixIris
00000000002d7a40 V _ZTV22TSpectrographZolixSlit
00000000002d8520 V _ZTV23ISpectrographWavelength
00000000002d8d00 V _ZTV23TMCDI2CInterfaceWrapper
00000000002d8e60 V _ZTV23TSpectrographI2CControl
00000000002d8100 V _ZTV24ISpectrographFocusMirror
00000000002d8300 V _ZTV24TSpectrographZolixEeprom
00000000002d7880 V _ZTV24TSpectrographZolixFilter
00000000002d8800 V _ZTV24TZolixSpectrographDevice
00000000002d8de0 V _ZTV25TSpectrograph303iHardware
00000000002d7bc0 V _ZTV25TSpectrographZolixFlipper
00000000002d7e00 V _ZTV25TSpectrographZolixGrating
00000000002d77c0 V _ZTV26ISpectrographDeviceFactory
00000000002d7140 V _ZTV26TAndorOnly_ZolixOmniLambda
00000000002d8a80 V _ZTV26TZSpectrographWaveStrategy
00000000002d8200 V _ZTV27TSpectrographZolixAccessory
00000000002d8940 V _ZTV28TSpectrographZolixStepTurret
00000000002d7500 V _ZTV29TAndorZolixSpectrographEeprom
00000000002d8040 V _ZTV29TSpectrographZolixFocusMirror
00000000002d8a20 V _ZTV29TZSpectrographGratingStrategy
00000000002d8b80 V _ZTV33TZSpectrographWaveStrategyBuiltIn
00000000002d8b00 V _ZTV36TZSpectrographGratingStrategyBuiltIn
00000000002d7d40 V _ZTV41TSpectrographZolixFlipperWithUserPosition
00000000002d9800 V _ZTV8TSDKSlit
                 U _ZTVN10__cxxabiv117__class_type_infoE
                 U _ZTVN10__cxxabiv120__si_class_type_infoE
                 U _ZTVN10__cxxabiv121__vmi_class_type_infoE
00000000002d9000 V _ZTVN15CSimpleIniTemplIc16SI_GenericNoCaseIcE11SI_ConvertAIcEE10FileWriterE
00000000002d9040 V _ZTVN15CSimpleIniTemplIc16SI_GenericNoCaseIcE11SI_ConvertAIcEE12OutputWriterE
0000000000089be7 T _ZThn48_N16TZolixWavelength13ServerChangedEP13TDeviceServer
000000000008972e T _ZThn48_N16TZolixWavelengthD0Ev
00000000000896ff T _ZThn48_N16TZolixWavelengthD1Ev
000000000008b23d T _ZThn8_N28TSpectrographZolixStepTurret10GetGratingERi
000000000008b20b T _ZThn8_N28TSpectrographZolixStepTurret10SetGratingEiN29TZSpectrographGratingStrategy17eWavelengthOptionE
000000000008b332 T _ZThn8_N28TSpectrographZolixStepTurret16GetGratingOffsetEiRi
000000000008b2f0 T _ZThn8_N28TSpectrographZolixStepTurret16SetGratingOffsetEii
000000000008b4d1 T _ZThn8_N28TSpectrographZolixStepTurret17GetDetectorOffsetEiiRi
000000000008b48d T _ZThn8_N28TSpectrographZolixStepTurret17SetDetectorOffsetEiii
000000000008b393 T _ZThn8_N28TSpectrographZolixStepTurret23GratingOffsetAutoAdjustEv
000000000008b3f5 T _ZThn8_N28TSpectrographZolixStepTurret29GratingOffsetCancelAutoAdjustEv
000000000008a8fa T _ZThn8_N28TSpectrographZolixStepTurretD0Ev
000000000008a8cd T _ZThn8_N28TSpectrographZolixStepTurretD1Ev
00000000000b890a u _ZZN15CSimpleIniTemplIc16SI_GenericNoCaseIcE11SI_ConvertAIcEE8LoadDataEPKcmE5empty
00000000000b890c u _ZZNK15CSimpleIniTemplIc16SI_GenericNoCaseIcE11SI_ConvertAIcEE5Entry8KeyOrderclERKS5_S8_E6isLess
00000000000b890b u _ZZNK15CSimpleIniTemplIc16SI_GenericNoCaseIcE11SI_ConvertAIcEE6IsLessEPKcS6_E6isLess
                 U _ZdaPv
                 U _ZdlPv
0000000000082e28 W _ZdlPvS_
0000000000058fea T _ZmiRK10TAndorTimeS1_
                 U _Znam
                 U _Znwm
0000000000082e16 W _ZnwmPv
0000000000059024 T _ZplRK10TAndorTimeS1_
                 U __assert_fail
00000000002dd06c B __bss_start
                 U __ctype_b_loc
                 U __cxa_allocate_exception
                 U __cxa_atexit
                 U __cxa_begin_catch
                 U __cxa_end_catch
                 w __cxa_finalize
                 U __cxa_pure_virtual
                 U __cxa_rethrow
                 U __cxa_throw
                 U __errno_location
                 w __gmon_start__
                 U __gxx_personality_v0
                 w __pthread_key_create
                 U __xstat
00000000002dd06c D _edata
00000000002dd2f0 B _end
00000000000b7060 T _fini
000000000004ca20 T _init
                 U access
00000000002dd2e0 B active_contexts_list
00000000002dd1c0 B active_contexts_lock
                 U asin
                 U asprintf
                 U atan
                 U atof
                 U atoi
                 U bind
                 U calloc
                 U ceil
                 U clock_gettime
                 U close
                 U closedir
000000000009dec1 T constructD2xx
                 U cos
000000000009e0da T destroyD2xx
00000000000a7616 T discovered_devs_append
                 U dlclose
                 U dlerror
                 U dlopen
                 U dlsym
00000000002dd128 B dwNumberOfAttachedDevices
                 U fclose
                 U fcntl
                 U floor
                 U fmod
                 U fnmatch
                 U fopen
                 U fputs
                 U fread
                 U free
                 U fscanf
                 U fseek
                 U ftell
00000000002dd09c B gbShamInitialized
00000000002dd0d8 B gblZolixOmniLambda
                 U gcvt
                 U getcwd
                 U getenv
                 U gethostname
                 U getpid
                 U gettimeofday
00000000002dd098 B giNumberShamrocks
                 U ioctl
                 U isalnum
                 U isalpha
                 U isspace
00000000000a8f04 T libusb_alloc_streams
00000000000ac7d1 T libusb_alloc_transfer
00000000000a912d T libusb_attach_kernel_driver
00000000000afad6 T libusb_bulk_transfer
00000000000ace07 T libusb_cancel_transfer
00000000000a8b9d T libusb_claim_interface
00000000000a8e38 T libusb_clear_halt
00000000000a87e0 T libusb_close
00000000000af738 T libusb_control_transfer
00000000000a90a8 T libusb_detach_kernel_driver
00000000000a9e29 T libusb_error_name
00000000000ad4d2 T libusb_event_handler_active
00000000000ad44a T libusb_event_handling_ok
00000000000a9656 T libusb_exit
00000000000abdf8 T libusb_free_bos_descriptor
00000000000ab6d0 T libusb_free_config_descriptor
00000000000ac171 T libusb_free_container_id_descriptor
00000000000a7c8d T libusb_free_device_list
00000000000aeb51 T libusb_free_pollfds
00000000000ab85e T libusb_free_ss_endpoint_companion_descriptor
00000000000ac05d T libusb_free_ss_usb_device_capability_descriptor
00000000000a8f98 T libusb_free_streams
00000000000ac8ab T libusb_free_transfer
00000000000abf49 T libusb_free_usb_2_0_extension_descriptor
00000000000ab287 T libusb_get_active_config_descriptor
00000000000abc04 T libusb_get_bos_descriptor
00000000000a7cf6 T libusb_get_bus_number
00000000000ab3bb T libusb_get_config_descriptor
00000000000ab602 T libusb_get_config_descriptor_by_value
00000000000a89c5 T libusb_get_configuration
00000000000ac077 T libusb_get_container_id_descriptor
00000000000a89b3 T libusb_get_device
00000000000a7e3d T libusb_get_device_address
00000000000ab232 T libusb_get_device_descriptor
00000000000a7a73 T libusb_get_device_list
00000000000a7e4f T libusb_get_device_speed
00000000000a7fd6 T libusb_get_max_iso_packet_size
00000000000a7f35 T libusb_get_max_packet_size
00000000000ae3d5 T libusb_get_next_timeout
00000000000a7e2b T libusb_get_parent
00000000000aea4e T libusb_get_pollfds
00000000000a7d08 T libusb_get_port_number
00000000000a7d1a T libusb_get_port_numbers
00000000000a7df9 T libusb_get_port_path
00000000000ab6ff T libusb_get_ss_endpoint_companion_descriptor
00000000000abf63 T libusb_get_ss_usb_device_capability_descriptor
00000000000ac18b T libusb_get_string_descriptor_ascii
00000000000abe4f T libusb_get_usb_2_0_extension_descriptor
00000000000a9f31 T libusb_get_version
00000000000ae2ef T libusb_handle_events
00000000000ae325 T libusb_handle_events_completed
00000000000ae35e T libusb_handle_events_locked
00000000000ae2c5 T libusb_handle_events_timeout
00000000000ae132 T libusb_handle_events_timeout_completed
00000000000a9929 T libusb_has_capability
00000000000af31f T libusb_hotplug_deregister_callback
00000000000af106 T libusb_hotplug_register_callback
00000000000a921e T libusb_init
00000000000afb24 T libusb_interrupt_transfer
00000000000a9023 T libusb_kernel_driver_active
00000000000ad55f T libusb_lock_event_waiters
00000000000ad38e T libusb_lock_events
00000000000a82c1 T libusb_open
00000000000a84b5 T libusb_open_device_with_vid_pid
00000000000ae3c6 T libusb_pollfds_handle_timeouts
00000000000a80bb T libusb_ref_device
00000000000a8c88 T libusb_release_interface
00000000000a8ea7 T libusb_reset_device
00000000000a91b2 T libusb_set_auto_detach_kernel_driver
00000000000a8b4b T libusb_set_configuration
00000000000a91e8 T libusb_set_debug
00000000000a8d5c T libusb_set_interface_alt_setting
00000000000ae6e4 T libusb_set_pollfd_notifiers
00000000000acbe6 T libusb_submit_transfer
00000000000acfa4 T libusb_transfer_get_stream_id
00000000000acf7f T libusb_transfer_set_stream_id
00000000000ad2d6 T libusb_try_lock_events
00000000000ad594 T libusb_unlock_event_waiters
00000000000ad3d1 T libusb_unlock_events
00000000000a80f6 T libusb_unref_device
00000000000ad5c9 T libusb_wait_for_event
00000000000b1c8a T linux_device_disconnected
00000000000b1a56 T linux_enumerate_device
00000000000b0b20 T linux_get_device_address
00000000000b1bf9 T linux_hotplug_enumerate
00000000002dd2a0 B linux_hotplug_lock
00000000002dd260 B linux_hotplug_startstop_lock
00000000000b5c8e T linux_netlink_hotplug_poll
00000000000b5315 T linux_netlink_start_event_monitor
00000000000b54bc T linux_netlink_stop_event_monitor
00000000002d6ee0 D linux_usbfs_backend
                 U localtime
                 U malloc
                 U memcmp
                 U memcpy
                 U memmove
                 U memset
                 U mkdir
                 U open
                 U opendir
00000000002dd090 B pShamrockList
00000000002dd088 B pSpectrographSDK
00000000002dd120 B pgAttachedList
                 U pipe
                 U poll
                 U pow
00000000000a6daf T processor_thread
                 U pthread_cond_broadcast
                 U pthread_cond_destroy
                 U pthread_cond_init
                 U pthread_cond_signal
                 U pthread_cond_timedwait
                 U pthread_cond_wait
                 U pthread_create
                 U pthread_join
                 U pthread_mutex_destroy
                 U pthread_mutex_init
                 U pthread_mutex_lock
                 U pthread_mutex_trylock
                 U pthread_mutex_unlock
                 U pthread_mutexattr_destroy
                 U pthread_mutexattr_init
                 U pthread_mutexattr_settype
                 U pthread_self
                 U read
                 U readdir
00000000000a6b3f T reader_thread
                 U realloc
                 U recvmsg
                 U remove
                 U rmdir
                 U setlocale
                 U sin
                 U sleep
00000000002dd060 D snl
                 U snprintf
                 U socket
                 U sprintf
                 U sqrt
                 U sscanf
                 U stderr
                 U strcasecmp
                 U strcat
                 U strchr
                 U strcmp
                 U strcpy
                 U strdup
                 U strerror
                 U strlen
                 U strncat
                 U strncmp
                 U strncpy
                 U strrchr
                 U strstr
                 U strtod
                 U strtok
                 U strtol
                 U strtoul
                 U syscall
                 U tolower
                 U toupper
                 U uname
00000000000ae7cb T usbi_add_pollfd
00000000000a772d T usbi_alloc_device
00000000002d9a48 D usbi_backend
00000000000a825e T usbi_clear_event
00000000000a77f1 T usbi_connect_device
00000000002dd1a0 B usbi_default_context
00000000000ab178 T usbi_device_cache_descriptor
00000000000a7897 T usbi_disconnect_device
00000000000ab53c T usbi_get_config_index_by_value
00000000000a79de T usbi_get_device_by_session_id
00000000000b6f28 T usbi_get_tid
00000000000aeb74 T usbi_handle_disconnect
00000000000ad194 T usbi_handle_transfer_cancellation
00000000000acfc3 T usbi_handle_transfer_completion
00000000000af3e3 T usbi_hotplug_deregister_all
00000000000aeef5 T usbi_hotplug_match
00000000000aefe4 T usbi_hotplug_notification
00000000000ac5cb T usbi_io_exit
00000000000ac43a T usbi_io_init
00000000000a9d75 T usbi_log
00000000000a99c1 T usbi_log_v
00000000000b6ea2 T usbi_mutex_init_recursive
00000000000aa068 T usbi_parse_descriptor
00000000000b6f4e T usbi_pipe
00000000000ae8e3 T usbi_remove_pollfd
00000000000a793e T usbi_sanitize_device
00000000000a81f7 T usbi_signal_event
00000000000ad1fa T usbi_signal_transfer_completion
                 U usleep
                 U vsnprintf
                 U vswprintf
                 U wcscat
                 U wcscpy
                 U wcslen
                 U wcsncat
                 U wcsncpy
                 U write
00000000000a0e32 T write_thread
